(dp1
S'surface.n.02'
p2
(lp3
sS'living_thing.n.01'
p4
(lp5
S'organism.n.01'
p6
asS'statement.n.01'
p7
(lp8
S'announcement.n.02'
p9
asS'garden_tool.n.01'
p10
(lp11
S'lawn_mower.n.01'
p12
asS'change_magnitude.v.01'
p13
(lp14
S'decrease.v.01'
p15
asS'smack.v.01'
p16
(lp17
S'hit.v.03'
p18
asS'fact.n.01'
p19
(lp20
S'information.n.02'
p21
asS'travel.v.01'
p22
(lp23
S'fly.v.01'
p24
aS'descend.v.01'
p25
asS'thunderbolt.n.01'
p26
(lp27
S'lightning.n.01'
p28
asS'travel.v.03'
p29
(lp30
S'travel.v.02'
p31
asS'travel.v.02'
p32
(lp33
S'tour.v.01'
p34
asS'decide.v.01'
p35
(lp36
S'choose.v.01'
p37
asS'thing.n.12'
p38
(lp39
S'part.n.03'
p40
aS'necessity.n.02'
p41
aS'body_of_water.n.01'
p42
asS'thrall.n.02'
p43
(lp44
S'serf.n.01'
p45
asS'friday.n.01'
p46
(lp47
S'weekday.n.01'
p48
asS'communication.n.02'
p49
(lp50
S'message.n.02'
p51
aS'language.n.01'
p52
aS'auditory_communication.n.01'
p53
aS'written_communication.n.01'
p54
aS'signal.n.01'
p55
aS'display.n.05'
p56
asS'immorality.n.01'
p57
(lp58
S'unrighteousness.n.01'
p59
asS'connect.v.01'
p60
(lp61
S'join.v.02'
p62
aS'attach.v.01'
p63
asS'attack.n.07'
p64
(lp65
S'hysterics.n.01'
p66
asS'gallop.v.01'
p67
(lp68
S'ride_horseback.v.01'
p69
asS'peregrine.n.01'
p70
(lp71
S'falcon.n.01'
p72
asS'bell.n.01'
p73
(lp74
S'signaling_device.n.01'
p75
aS'acoustic_device.n.01'
p76
asS'hand.n.06'
p77
(lp78
S'collection.n.01'
p79
asS'practice.n.01'
p80
(lp81
S'custom.n.01'
p82
asS'advice.n.01'
p83
(lp84
S'proposal.n.01'
p85
asS'location.n.01'
p86
(lp87
S'region.n.01'
p88
asS'plodding.n.02'
p89
(lp90
S'walk.n.01'
p91
asS'screening.n.01'
p92
(lp93
S'display.n.05'
p94
asS'tissue.n.01'
p95
(lp96
S'animal_tissue.n.01'
p97
asS'parlor_game.n.01'
p98
(lp99
S'board_game.n.01'
p100
asS'entity.n.01'
p101
(lp102
S'physical_entity.n.01'
p103
aS'abstraction.n.06'
p104
asS'praise.v.01'
p105
(lp106
S'advertise.v.02'
p107
asS'rational_number.n.01'
p108
(lp109
S'fraction.n.03'
p110
asS'coupling.n.02'
p111
(lp112
sS'throw.v.01'
p113
(lp114
S'fling.v.01'
p115
asS'male_offspring.n.01'
p116
(lp117
sS'confine.v.05'
p118
(lp119
S'cage.v.01'
p120
asS'scythe.n.01'
p121
(lp122
S'edge_tool.n.01'
p123
asS'a.n.06'
p124
(lp125
S'letter.n.02'
p126
asS'laying.n.01'
p127
(lp128
S'parturition.n.01'
p129
asS'field_day.n.04'
p130
(lp131
S'vacation.n.01'
p132
asS'purple.n.01'
p133
(lp134
S'chromatic_color.n.01'
p135
asS'falsification.n.02'
p136
(lp137
S'deception.n.02'
p138
asS'plant.n.02'
p139
(lp140
S'vascular_plant.n.01'
p141
asS'inside.n.01'
p142
(lp143
S'region.n.01'
p144
asS'sound.n.01'
p145
(lp146
S'voice.n.01'
p147
asS'cattle.n.01'
p148
(lp149
S'bovine.n.01'
p150
asS'attitude.n.01'
p151
(lp152
S'inclination.n.01'
p153
asS'case.n.01'
p154
(lp155
S'time.n.01'
p156
asS'clutter.n.01'
p157
(lp158
S'disorderliness.n.01'
p159
asS'commoner.n.01'
p160
(lp161
S'cipher.n.04'
p162
asS'fodder.n.02'
p163
(lp164
sS'disapprove.v.02'
p165
(lp166
S'object.v.01'
p167
asS'bring.v.04'
p168
(lp169
S'transmit.v.04'
p170
asS'matter.n.01'
p171
(lp172
S'least.n.01'
p173
asS'action.n.01'
p174
(lp175
S'change.n.03'
p176
aS'playing.n.02'
p177
aS'choice.n.02'
p178
asS'matter.n.03'
p179
(lp180
S'substance.n.01'
p181
aS'substance.n.07'
p182
aS'fluid.n.02'
p183
aS'solid.n.01'
p184
asS'undo.v.01'
p185
(lp186
S'change_by_reversal.v.01'
p187
asS'opinion.n.01'
p188
(lp189
sS'disease.n.01'
p190
(lp191
S'communicable_disease.n.01'
p192
aS'respiratory_disease.n.01'
p193
asS'stove.n.01'
p194
(lp195
S'primus_stove.n.01'
p196
asS'elapse.v.01'
p197
(lp198
sS'accessory.n.01'
p199
(lp200
S'furnishing.n.01'
p201
asS'phenomenon.n.01'
p202
(lp203
S'consequence.n.01'
p204
asS'sound_property.n.01'
p205
(lp206
S'sound.n.01'
p207
asS'land.n.02'
p208
(lp209
S'turf.n.01'
p210
asS'annoyance.n.02'
p211
(lp212
S'pique.n.02'
p213
asS'land.n.04'
p214
(lp215
S'object.n.01'
p216
asS'gregorian_calendar_month.n.01'
p217
(lp218
S'july.n.01'
p219
asS'water.n.01'
p220
(lp221
S'liquid.n.03'
p222
aS'binary_compound.n.01'
p223
asS'italic.n.02'
p224
(lp225
S'latin.n.01'
p226
asS'flick.v.02'
p227
(lp228
S'peruse.v.01'
p229
asS'battle.n.01'
p230
(lp231
S'military_action.n.01'
p232
asS'red.n.01'
p233
(lp234
S'chromatic_color.n.01'
p235
asS'high_status.n.01'
p236
(lp237
S'precedence.n.01'
p238
asS'vomit.v.01'
p239
(lp240
S'excrete.v.01'
p241
asS'academic_degree.n.01'
p242
(lp243
S'associate_degree.n.01'
p244
asS'rattle.n.01'
p245
(lp246
S'noise.n.01'
p247
asS'least.n.01'
p248
(lp249
S'matter.n.01'
p250
asS'front.v.01'
p251
(lp252
S'lie.v.01'
p253
asS'body_substance.n.01'
p254
(lp255
S'liquid_body_substance.n.01'
p256
asS'periodic_event.n.01'
p257
(lp258
S'repeat.n.01'
p259
asS'eatage.n.01'
p260
(lp261
S'fodder.n.02'
p262
asS'desire.v.01'
p263
(lp264
sS'disapproval.n.02'
p265
(lp266
S'criticism.n.01'
p267
asS'slave.n.01'
p268
(lp269
S'bond_servant.n.01'
p270
asS'smell.v.01'
p271
(lp272
sS'left.n.01'
p273
(lp274
S'position.n.01'
p275
asS'mineral.n.01'
p276
(lp277
S'spar.n.01'
p278
asS'upper_class.n.01'
p279
(lp280
S'elite.n.01'
p281
asS'chill.n.03'
p282
(lp283
S'symptom.n.01'
p284
asS'necessity.n.02'
p285
(lp286
S'need.n.02'
p287
asS'terminology.n.01'
p288
(lp289
S'word.n.01'
p290
asS'drawbridge.n.01'
p291
(lp292
S'bridge.n.01'
p293
asS'circulate.v.02'
p294
(lp295
sS'river.n.01'
p296
(lp297
S'stream.n.01'
p298
asS'psychological_feature.n.01'
p299
(lp300
S'event.n.01'
p301
aS'cognition.n.01'
p302
aS'motivation.n.01'
p303
asS'abdomen.n.01'
p304
(lp305
S'body_part.n.01'
p306
asS'hysterics.n.01'
p307
(lp308
S'attack.n.07'
p309
asS'acre.n.01'
p310
(lp311
S'area_unit.n.01'
p312
asS'united_nations.n.01'
p313
(lp314
S'world_organization.n.01'
p315
asS'about-face.n.02'
p316
(lp317
S'undoing.n.01'
p318
asS'fly.v.08'
p319
(lp320
S'elapse.v.01'
p321
asS'physical_phenomenon.n.01'
p322
(lp323
S'atmospheric_phenomenon.n.01'
p324
aS'energy.n.01'
p325
asS'get.v.19'
p326
(lp327
S'hit.v.03'
p328
asS'denial.n.01'
p329
(lp330
S'negative.n.01'
p331
asS'hurling.n.01'
p332
(lp333
S'field_game.n.01'
p334
asS'lie.v.01'
p335
(lp336
S'front.v.01'
p337
asS'playing.n.02'
p338
(lp339
S'catching.n.01'
p340
asS'drink.v.01'
p341
(lp342
sS'living_quarters.n.01'
p343
(lp344
S'military_quarters.n.01'
p345
asS'crossing.n.01'
p346
(lp347
S'travel.n.01'
p348
asS'solid.n.03'
p349
(lp350
S'convex_shape.n.01'
p351
asS'stand.v.01'
p352
(lp353
S'rest.v.01'
p354
asS'hunt.n.08'
p355
(lp356
S'outdoor_sport.n.01'
p357
aS'blood_sport.n.01'
p358
asS'ditch.n.01'
p359
(lp360
S'trench.n.01'
p361
asS'day.n.04'
p362
(lp363
sS'instrumentality.n.03'
p364
(lp365
S'container.n.01'
p366
aS'conveyance.n.03'
p367
aS'device.n.01'
p368
aS'implement.n.01'
p369
aS'equipment.n.01'
p370
aS'furnishing.n.02'
p371
aS'connection.n.03'
p372
asS'natural_language.n.01'
p373
(lp374
S'indo-european.n.02'
p375
asS'calendar_day.n.01'
p376
(lp377
S'day_of_the_week.n.01'
p378
asS'cooking_utensil.n.01'
p379
(lp380
S'pot.n.01'
p381
asS'person_of_color.n.01'
p382
(lp383
S'amerindian.n.01'
p384
asS'harbor.v.01'
p385
(lp386
S'feel.v.01'
p387
asS'dark.n.01'
p388
(lp389
S'illumination.n.02'
p390
aS'semidarkness.n.01'
p391
asS'overgarment.n.01'
p392
(lp393
S'coat.n.01'
p394
asS'advertise.v.01'
p395
(lp396
S'announce.v.01'
p397
asS'operating_expense.n.01'
p398
(lp399
S'expense.n.01'
p400
asS'belief.n.01'
p401
(lp402
S'opinion.n.01'
p403
aS'spiritual_being.n.01'
p404
asS'advertise.v.02'
p405
(lp406
S'crusade.v.01'
p407
asS'region.n.01'
p408
(lp409
S'inside.n.01'
p410
asS'knowledge_domain.n.01'
p411
(lp412
S'discipline.n.01'
p413
asS'region.n.03'
p414
(lp415
S'geographical_area.n.01'
p416
asS'examine.v.02'
p417
(lp418
S'peruse.v.01'
p419
asS'rebuke.n.01'
p420
(lp421
S'reproach.n.01'
p422
asS'horny_structure.n.01'
p423
(lp424
S'nail.n.01'
p425
asS'indian.n.01'
p426
(lp427
S'amerindian.n.01'
p428
asS'cord.n.01'
p429
(lp430
S'line.n.18'
p431
asS'fling.v.01'
p432
(lp433
S'throw.v.01'
p434
asS'card_game.n.01'
p435
(lp436
S'whist.n.01'
p437
asS'cut.v.01'
p438
(lp439
S'nip.v.03'
p440
asS'continuance.n.01'
p441
(lp442
S'survival.n.03'
p443
asS'foot.n.01'
p444
(lp445
S'vertebrate_foot.n.01'
p446
asS'publication.n.01'
p447
(lp448
sS'motion.n.03'
p449
(lp450
S'rotation.n.01'
p451
aS'stroke.n.12'
p452
asS'process.n.06'
p453
(lp454
S'organic_process.n.01'
p455
aS'phenomenon.n.01'
p456
asS'organism.n.01'
p457
(lp458
S'animal.n.01'
p459
aS'person.n.01'
p460
asS'keeping.n.01'
p461
(lp462
S'conformity.n.02'
p463
asS'motion.n.06'
p464
(lp465
S'pursuit.n.01'
p466
aS'travel.n.01'
p467
aS'locomotion.n.02'
p468
aS'maneuver.n.03'
p469
asS'sitting.n.01'
p470
(lp471
S'motion.n.03'
p472
asS'mow.v.01'
p473
(lp474
S'cut.v.01'
p475
asS'expressway.n.01'
p476
(lp477
S'highway.n.01'
p478
asS'music.n.01'
p479
(lp480
sS'must.n.01'
p481
(lp482
S'necessity.n.02'
p483
asS'vice.n.02'
p484
(lp485
S'intemperance.n.02'
p486
asS'source_of_illumination.n.01'
p487
(lp488
S'lamp.n.01'
p489
asS'nincompoop.n.01'
p490
(lp491
S'simpleton.n.01'
p492
asS'silver.n.01'
p493
(lp494
S'conductor.n.02'
p495
aS'noble_metal.n.01'
p496
asS'occasions.n.01'
p497
(lp498
S'business.n.05'
p499
asS'cant.v.01'
p500
(lp501
S'move.v.03'
p502
asS'male.n.02'
p503
(lp504
sS'organon.n.01'
p505
(lp506
S'system.n.04'
p507
asS'section.n.01'
p508
(lp509
sS'cutlery.n.02'
p510
(lp511
S'fork.n.01'
p512
asS'communicable_disease.n.01'
p513
(lp514
S'cold.n.01'
p515
asS'toss_off.v.02'
p516
(lp517
S'drink.v.01'
p518
asS'libertine.n.01'
p519
(lp520
S'rake.n.01'
p521
asS'contents.n.01'
p522
(lp523
S'table.n.01'
p524
aS'list.n.01'
p525
asS'break.v.42'
p526
(lp527
S'decay.v.02'
p528
asS'past.n.01'
p529
(lp530
S'history.n.01'
p531
asS'electromagnetic_radiation.n.01'
p532
(lp533
S'actinic_radiation.n.01'
p534
asS'football_play.n.01'
p535
(lp536
S'pass.n.03'
p537
asS'field_game.n.01'
p538
(lp539
S'hurling.n.01'
p540
asS'anger.n.01'
p541
(lp542
S'annoyance.n.02'
p543
asS'tiercel.n.01'
p544
(lp545
S'hawk.n.01'
p546
asS'vertical.n.01'
p547
(lp548
S'orientation.n.03'
p549
asS'bathe.v.01'
p550
(lp551
S'cleanse.v.01'
p552
asS'make.v.03'
p553
(lp554
sS'latin.n.01'
p555
(lp556
S'italic.n.02'
p557
asS'plan_of_action.n.01'
p558
(lp559
S'play.n.03'
p560
asS'flavorer.n.01'
p561
(lp562
S'cardamom.n.02'
p563
asS'time.n.03'
p564
(lp565
sS'poison.n.01'
p566
(lp567
S'substance.n.07'
p568
asS'pursuit.n.01'
p569
(lp570
S'motion.n.06'
p571
asS'pursuit.n.02'
p572
(lp573
S'search.n.04'
p574
asS'killer.n.01'
p575
(lp576
S'murderer.n.01'
p577
asS'cardamom.n.02'
p578
(lp579
S'flavorer.n.01'
p580
asS'contend.v.06'
p581
(lp582
S'attack.v.01'
p583
asS'plan.n.01'
p584
(lp585
S'plan_of_action.n.01'
p586
asS'travel.n.01'
p587
(lp588
S'crossing.n.01'
p589
asS'cutting_implement.n.01'
p590
(lp591
S'cutter.n.06'
p592
asS'dart.v.02'
p593
(lp594
S'rush.v.01'
p595
asS'port.n.01'
p596
(lp597
S'geographic_point.n.01'
p598
asS'nostril.n.01'
p599
(lp600
S'naris.n.01'
p601
asS'screen.n.04'
p602
(lp603
S'covering.n.02'
p604
asS'fence.n.01'
p605
(lp606
S'barrier.n.01'
p607
asS'maharaja.n.01'
p608
(lp609
S'prince.n.01'
p610
asS'bad.n.01'
p611
(lp612
S'worse.n.01'
p613
asS'emotion.n.01'
p614
(lp615
S'anger.n.01'
p616
asS'indispose.v.03'
p617
(lp618
S'hurt.v.02'
p619
asS'whist.n.01'
p620
(lp621
S'hearts.n.01'
p622
asS'mammal.n.01'
p623
(lp624
S'placental.n.01'
p625
asS'street.n.01'
p626
(lp627
S'mews.n.01'
p628
asS'decay.v.02'
p629
(lp630
S'break.v.42'
p631
asS'display.n.05'
p632
(lp633
S'screening.n.01'
p634
asS'theory.n.01'
p635
(lp636
S'explanation.n.02'
p637
asS'direction.n.01'
p638
(lp639
S'bearing.n.02'
p640
aS'path.n.03'
p641
asS'weekday.n.01'
p642
(lp643
S'friday.n.01'
p644
asS'address.n.02'
p645
(lp646
S'residence.n.01'
p647
asS'peck.v.01'
p648
(lp649
S'strike.v.01'
p650
asS'man.n.10'
p651
(lp652
S'chessman.n.01'
p653
asS'military_quarters.n.01'
p654
(lp655
S'barrack.n.01'
p656
asS'cannabis.n.02'
p657
(lp658
S'pot.n.09'
p659
asS'fruit.n.01'
p660
(lp661
S'seed.n.01'
p662
asS'outdoor_game.n.01'
p663
(lp664
S'field_game.n.01'
p665
asS'edge.n.01'
p666
(lp667
S'boundary.n.01'
p668
asS'astrolabe.n.01'
p669
(lp670
S'sextant.n.02'
p671
asS'lumber.n.01'
p672
(lp673
S'strip.n.05'
p674
asS'knife.n.01'
p675
(lp676
S'edge_tool.n.01'
p677
asS'leader.n.01'
p678
(lp679
S'hero.n.01'
p680
aS'aristocrat.n.01'
p681
aS'spiritual_leader.n.01'
p682
asS'knowing.n.01'
p683
(lp684
S'know.n.01'
p685
asS'communicate.v.02'
p686
(lp687
S'joke.v.01'
p688
aS'inform.v.01'
p689
aS'talk.v.02'
p690
asS'horizontal_surface.n.01'
p691
(lp692
S'floor.n.01'
p693
asS'groom.v.03'
p694
(lp695
S'cleanse.v.01'
p696
asS'consume.v.02'
p697
(lp698
S'eat.v.02'
p699
aS'eat.v.01'
p700
aS'drink.v.01'
p701
asS'pass.n.03'
p702
(lp703
S'forward_pass.n.01'
p704
asS'morning.n.01'
p705
(lp706
S'time_period.n.01'
p707
asS'injure.v.01'
p708
(lp709
S'twist.v.10'
p710
asS'convey.v.03'
p711
(lp712
S'communicate.v.01'
p713
asS'become.v.03'
p714
(lp715
S'originate.v.01'
p716
asS'direct.v.04'
p717
(lp718
sS'trench.n.01'
p719
(lp720
S'moat.n.01'
p721
asS'material.n.01'
p722
(lp723
S'earth.n.02'
p724
aS'animal_material.n.01'
p725
aS'chemical.n.01'
p726
aS'plant_material.n.01'
p727
aS'waste.n.01'
p728
aS'substance.n.01'
p729
aS'mineral.n.01'
p730
asS'complex_number.n.01'
p731
(lp732
S'real_number.n.01'
p733
asS'bury.v.01'
p734
(lp735
S'hide.v.01'
p736
asS'crick.n.01'
p737
(lp738
S'spasm.n.01'
p739
asS'point.n.06'
p740
(lp741
S'end.n.02'
p742
asS'chivalry.n.01'
p743
(lp744
S'courtesy.n.03'
p745
asS'there.n.01'
p746
(lp747
S'location.n.01'
p748
asS'point.n.02'
p749
(lp750
S'topographic_point.n.01'
p751
aS'geographic_point.n.01'
p752
aS'position.n.01'
p753
asS'occupation.n.01'
p754
(lp755
S'career.n.01'
p756
asS'side.n.04'
p757
(lp758
S'surface.n.02'
p759
asS'son.n.01'
p760
(lp761
S'male_offspring.n.01'
p762
asS'announcement.n.02'
p763
(lp764
S'program.n.05'
p765
asS'choice.n.02'
p766
(lp767
S'vote.n.01'
p768
asS'writing.n.04'
p769
(lp770
S'coding_system.n.01'
p771
asS'cipher.n.04'
p772
(lp773
S'commoner.n.01'
p774
asS'channel.n.04'
p775
(lp776
S'strait.n.01'
p777
asS'atmosphere.n.05'
p778
(lp779
S'sky.n.01'
p780
asS'mine.n.01'
p781
(lp782
S'excavation.n.03'
p783
asS'world_health_organization.n.01'
p784
(lp785
S'united_nations_agency.n.01'
p786
asS'excrete.v.01'
p787
(lp788
S'stool.v.04'
p789
asS'associate.n.01'
p790
(lp791
S'participant.n.01'
p792
asS'sunset.n.01'
p793
(lp794
S'hour.n.02'
p795
asS'plantation.n.02'
p796
(lp797
S'colony.n.01'
p798
asS'nonaccomplishment.n.01'
p799
(lp800
S'failure.n.01'
p801
asS'interim.n.01'
p802
(lp803
S'time_interval.n.01'
p804
asS'geographic_point.n.01'
p805
(lp806
S'port.n.01'
p807
aS'workplace.n.01'
p808
aS'address.n.02'
p809
asS'cognition.n.01'
p810
(lp811
S'ability.n.02'
p812
aS'content.n.05'
p813
aS'attitude.n.01'
p814
aS'process.n.02'
p815
aS'information.n.02'
p816
asS'impute.v.01'
p817
(lp818
S'evaluate.v.02'
p819
asS'state.n.04'
p820
(lp821
S'political_unit.n.01'
p822
asS'moat.n.01'
p823
(lp824
S'trench.n.01'
p825
asS'encouragement.n.01'
p826
(lp827
S'cheering.n.01'
p828
asS'vote.n.01'
p829
(lp830
S'choice.n.02'
p831
asS'metallic_element.n.01'
p832
(lp833
S'holmium.n.01'
p834
asS'pot.n.09'
p835
(lp836
S'cannabis.n.02'
p837
asS'grey.n.04'
p838
(lp839
S'organization.n.01'
p840
asS'one-third.n.01'
p841
(lp842
S'common_fraction.n.01'
p843
asS'letter.n.02'
p844
(lp845
sS'forest.n.01'
p846
(lp847
S'vegetation.n.01'
p848
asS'movement.n.04'
p849
(lp850
S'social_group.n.01'
p851
asS'queen.n.01'
p852
(lp853
S'insect.n.01'
p854
asS'peruse.v.01'
p855
(lp856
S'flick.v.02'
p857
asS'designate.v.01'
p858
(lp859
S'label.v.01'
p860
asS'vegetation.n.01'
p861
(lp862
S'brush.n.01'
p863
asS'falconry.n.01'
p864
(lp865
S'art.n.03'
p866
asS'rake.n.01'
p867
(lp868
S'libertine.n.01'
p869
asS'contractile_organ.n.01'
p870
(lp871
S'muscle.n.01'
p872
asS'pseudoscience.n.01'
p873
(lp874
S'astrology.n.01'
p875
asS'refuse.v.01'
p876
(lp877
S'react.v.01'
p878
asS'express_emotion.v.01'
p879
(lp880
S'laugh.v.01'
p881
asS'leave.v.01'
p882
(lp883
S'depart.v.03'
p884
asS'offer.n.02'
p885
(lp886
S'special.n.01'
p887
asS'food.n.02'
p888
(lp889
S'cheese.n.01'
p890
aS'baked_goods.n.01'
p891
asS'food.n.01'
p892
(lp893
S'beverage.n.01'
p894
aS'foodstuff.n.02'
p895
aS'feed.n.01'
p896
asS'armor.n.02'
p897
(lp898
S'military_unit.n.01'
p899
asS'dizziness.n.01'
p900
(lp901
S'symptom.n.01'
p902
asS'culture.n.02'
p903
(lp904
S'letters.n.01'
p905
asS'fallacy.n.01'
p906
(lp907
S'pseudoscience.n.01'
p908
asS'situation.n.01'
p909
(lp910
S'thing.n.01'
p911
asS'bovine.n.01'
p912
(lp913
sS'structure.n.04'
p914
(lp915
S'passage.n.07'
p916
aS'horny_structure.n.01'
p917
asS'good.n.03'
p918
(lp919
S'quality.n.01'
p920
asS'operating_system.n.01'
p921
(lp922
S'windows.n.01'
p923
asS'structure.n.01'
p924
(lp925
S'floor.n.02'
p926
asS'sunlight.n.01'
p927
(lp928
S'light.n.01'
p929
asS'supply.v.01'
p930
(lp931
S'offer.v.01'
p932
asS'night.n.01'
p933
(lp934
S'time_period.n.01'
p935
asS'work.n.02'
p936
(lp937
S'publication.n.01'
p938
asS'request.v.02'
p939
(lp940
sS'arthropod.n.01'
p941
(lp942
S'insect.n.01'
p943
asS'substance.n.01'
p944
(lp945
S'material.n.01'
p946
aS'chemical_element.n.01'
p947
asS'substance.n.07'
p948
(lp949
S'poison.n.01'
p950
aS'agent.n.03'
p951
aS'food.n.01'
p952
asS'cultivate.v.01'
p953
(lp954
sS'happening.n.01'
p955
(lp956
S'discharge.n.01'
p957
aS'trouble.n.03'
p958
aS'case.n.01'
p959
asS'pretense.n.01'
p960
(lp961
S'appearance.n.06'
p962
asS'joke.n.01'
p963
(lp964
S'wit.n.01'
p965
asS'protective_covering.n.01'
p966
(lp967
S'shelter.n.02'
p968
asS'position.n.01'
p969
(lp970
S'left.n.01'
p971
asS'collection.n.01'
p972
(lp973
S'bunch.n.03'
p974
asS'brush.n.01'
p975
(lp976
S'vegetation.n.01'
p977
asS'female.n.02'
p978
(lp979
S'woman.n.01'
p980
asS'hackle.n.01'
p981
(lp982
S'feather.n.01'
p983
asS'bunch.n.03'
p984
(lp985
S'collection.n.01'
p986
asS'reading.n.03'
p987
(lp988
S'clock_time.n.01'
p989
asS'darken.v.03'
p990
(lp991
S'shadow.v.02'
p992
asS'play.n.14'
p993
(lp994
S'horseplay.n.01'
p995
asS'scramble.v.03'
p996
(lp997
S'disorder.v.02'
p998
asS'measure.n.01'
p999
(lp1000
S'maneuver.n.04'
p1001
asS'act.n.02'
p1002
(lp1003
S'group_action.n.01'
p1004
aS'activity.n.01'
p1005
aS'action.n.01'
p1006
aS'speech_act.n.01'
p1007
aS'nonaccomplishment.n.01'
p1008
aS'production.n.01'
p1009
aS'touch.n.05'
p1010
aS'propulsion.n.02'
p1011
asS'run.v.01'
p1012
(lp1013
S'scurry.v.01'
p1014
asS'event.n.01'
p1015
(lp1016
S'act.n.02'
p1017
aS'group_action.n.01'
p1018
aS'happening.n.01'
p1019
asS'narrow.n.01'
p1020
(lp1021
S'strait.n.01'
p1022
asS'atmospheric_electricity.n.01'
p1023
(lp1024
S'lightning.n.01'
p1025
asS'movable_barrier.n.01'
p1026
(lp1027
sS'orifice.n.01'
p1028
(lp1029
S'naris.n.01'
p1030
aS'rima.n.01'
p1031
asS'organ.n.01'
p1032
(lp1033
S'tongue.n.01'
p1034
aS'speech_organ.n.01'
p1035
asS'passion.n.01'
p1036
(lp1037
S'feeling.n.01'
p1038
asS'position.n.07'
p1039
(lp1040
S'room.n.02'
p1041
aS'direction.n.02'
p1042
asS'basic_cognitive_process.n.01'
p1043
(lp1044
S'attention.n.01'
p1045
aS'discrimination.n.02'
p1046
asS'rate.v.01'
p1047
(lp1048
S'evaluate.v.02'
p1049
asS'lane.n.01'
p1050
(lp1051
S'way.n.06'
p1052
asS'mute.n.01'
p1053
(lp1054
S'deaf_person.n.01'
p1055
asS'line.n.11'
p1056
(lp1057
S'path.n.03'
p1058
asS'health_professional.n.01'
p1059
(lp1060
S'nurse.n.01'
p1061
asS'home.n.01'
p1062
(lp1063
S'residence.n.01'
p1064
asS'be.v.01'
p1065
(lp1066
sS'line.n.18'
p1067
(lp1068
S'cord.n.01'
p1069
asS'be.v.03'
p1070
(lp1071
sS'propel.v.01'
p1072
(lp1073
S'throw.v.01'
p1074
asS'declare.v.01'
p1075
(lp1076
S'propose.v.01'
p1077
asS'art.n.01'
p1078
(lp1079
S'creation.n.02'
p1080
asS'surround.v.01'
p1081
(lp1082
S'enclose.v.03'
p1083
asS'kennel.n.01'
p1084
(lp1085
S'outbuilding.n.01'
p1086
aS'shelter.n.02'
p1087
asS'rabbit.n.01'
p1088
(lp1089
S'leporid.n.01'
p1090
asS'falcon.n.01'
p1091
(lp1092
S'peregrine.n.01'
p1093
asS'bring.v.03'
p1094
(lp1095
S'make.v.03'
p1096
asS'tune.n.01'
p1097
(lp1098
S'music.n.01'
p1099
asS'idea.n.01'
p1100
(lp1101
S'concept.n.01'
p1102
aS'misconception.n.01'
p1103
aS'plan.n.01'
p1104
asS'consumer_goods.n.01'
p1105
(lp1106
S'clothing.n.01'
p1107
aS'durables.n.01'
p1108
asS'cardinal_compass_point.n.01'
p1109
(lp1110
S'west.n.02'
p1111
asS'foxhunt.v.01'
p1112
(lp1113
S'hunt.v.01'
p1114
asS'spiritual_leader.n.01'
p1115
(lp1116
S'clergyman.n.01'
p1117
asS'tract.n.01'
p1118
(lp1119
sS'tickle.n.02'
p1120
(lp1121
S'touch.n.05'
p1122
asS'ride_horseback.v.01'
p1123
(lp1124
S'gallop.v.01'
p1125
asS'hurt.v.02'
p1126
(lp1127
S'injure.v.01'
p1128
asS'shelter.n.02'
p1129
(lp1130
S'kennel.n.01'
p1131
asS'concentrate.v.02'
p1132
(lp1133
S'steep.v.01'
p1134
asS'leisure.n.01'
p1135
(lp1136
S'vacation.n.01'
p1137
asS'ability.n.02'
p1138
(lp1139
S'know-how.n.01'
p1140
aS'faculty.n.01'
p1141
aS'superior_skill.n.01'
p1142
aS'skill.n.01'
p1143
asS'thinking.n.01'
p1144
(lp1145
S'explanation.n.02'
p1146
asS'symbol.n.01'
p1147
(lp1148
S'written_symbol.n.01'
p1149
aS'award.n.02'
p1150
asS'rumble.n.01'
p1151
(lp1152
S'noise.n.01'
p1153
asS'appearance.n.06'
p1154
(lp1155
S'pretense.n.01'
p1156
asS'bond_servant.n.01'
p1157
(lp1158
S'thrall.n.02'
p1159
asS'magnitude.n.01'
p1160
(lp1161
S'size.n.01'
p1162
asS'external_body_part.n.01'
p1163
(lp1164
S'extremity.n.01'
p1165
aS'extremity.n.05'
p1166
asS'semen.n.01'
p1167
(lp1168
S'liquid_body_substance.n.01'
p1169
asS'projection.n.05'
p1170
(lp1171
S'bulge.n.01'
p1172
asS'lift.v.02'
p1173
(lp1174
S'pitchfork.v.01'
p1175
asS'horseplay.n.01'
p1176
(lp1177
S'play.n.14'
p1178
asS'deaf_person.n.01'
p1179
(lp1180
S'mute.n.01'
p1181
asS'associate_in_nursing.n.01'
p1182
(lp1183
S'associate_degree.n.01'
p1184
asS'order.v.01'
p1185
(lp1186
S'request.v.02'
p1187
asS'pant.v.01'
p1188
(lp1189
S'blow.v.01'
p1190
asS'workman.n.01'
p1191
(lp1192
S'laborer.n.01'
p1193
asS'support.n.10'
p1194
(lp1195
S'seat.n.04'
p1196
asS'repeat.n.01'
p1197
(lp1198
S'periodic_event.n.01'
p1199
asS'come.v.05'
p1200
(lp1201
S'originate.v.01'
p1202
asS'game_equipment.n.01'
p1203
(lp1204
S'man.n.10'
p1205
asS'receive.v.02'
p1206
(lp1207
S'change.v.02'
p1208
asS'path.n.03'
p1209
(lp1210
sS'steep.v.01'
p1211
(lp1212
S'concentrate.v.02'
p1213
asS'irritate.v.02'
p1214
(lp1215
sS'day.n.01'
p1216
(lp1217
S'time_unit.n.01'
p1218
asS'morality.n.01'
p1219
(lp1220
sS'manner.n.02'
p1221
(lp1222
S'courtesy.n.03'
p1223
asS'taste.n.03'
p1224
(lp1225
S'culture.n.02'
p1226
asS'exhale.v.01'
p1227
(lp1228
S'blow.v.01'
p1229
asS'direction.n.06'
p1230
(lp1231
S'rule.n.03'
p1232
asS'strip.n.05'
p1233
(lp1234
S'slat.n.01'
p1235
asS'obstruction.n.01'
p1236
(lp1237
S'barrier.n.01'
p1238
asS'associate_degree.n.01'
p1239
(lp1240
S'associate_in_nursing.n.01'
p1241
asS'joke.v.01'
p1242
(lp1243
S'communicate.v.02'
p1244
asS'degree.n.01'
p1245
(lp1246
S'high.n.01'
p1247
asS'abhor.v.01'
p1248
(lp1249
S'hate.v.01'
p1250
asS'hero.n.01'
p1251
(lp1252
S'leader.n.01'
p1253
asS'move.n.01'
p1254
(lp1255
S'maneuver.n.04'
p1256
asS'affliction.n.03'
p1257
(lp1258
S'attack.n.07'
p1259
asS'request.v.01'
p1260
(lp1261
S'ask.v.02'
p1262
asS'common_fraction.n.01'
p1263
(lp1264
sS'mistress.n.01'
p1265
(lp1266
S'woman.n.01'
p1267
aS'lover.n.03'
p1268
asS'work.n.01'
p1269
(lp1270
S'investigation.n.02'
p1271
asS'information.n.01'
p1272
(lp1273
S'fact.n.02'
p1274
aS'database.n.01'
p1275
asS'information.n.02'
p1276
(lp1277
S'fact.n.01'
p1278
aS'evidence.n.01'
p1279
asS'animal_product.n.01'
p1280
(lp1281
S'animal_skin.n.01'
p1282
asS'damn.n.01'
p1283
(lp1284
S'worthlessness.n.01'
p1285
asS'home_appliance.n.01'
p1286
(lp1287
S'kitchen_appliance.n.01'
p1288
asS'locomotion.n.02'
p1289
(lp1290
S'walk.n.01'
p1291
asS'glass.n.01'
p1292
(lp1293
S'solid.n.01'
p1294
asS'hash_out.v.01'
p1295
(lp1296
S'rede.v.02'
p1297
asS'cost.n.01'
p1298
(lp1299
S'expense.n.01'
p1300
aS'payment.n.01'
p1301
asS'day_of_the_week.n.01'
p1302
(lp1303
S'weekday.n.01'
p1304
asS'hay.n.01'
p1305
(lp1306
S'fodder.n.02'
p1307
asS'blame.n.02'
p1308
(lp1309
S'reproach.n.01'
p1310
asS'fear.v.01'
p1311
(lp1312
S'worry.v.01'
p1313
asS'laborer.n.01'
p1314
(lp1315
S'stevedore.n.01'
p1316
asS'principal.n.05'
p1317
(lp1318
S'criminal.n.01'
p1319
asS'do.v.04'
p1320
(lp1321
S'proceed.v.04'
p1322
asS'whole.n.02'
p1323
(lp1324
S'living_thing.n.01'
p1325
aS'artifact.n.01'
p1326
aS'natural_object.n.01'
p1327
asS'breathe.v.01'
p1328
(lp1329
S'exhale.v.01'
p1330
asS'need.n.02'
p1331
(lp1332
S'necessity.n.02'
p1333
asS'friend.n.01'
p1334
(lp1335
S'person.n.01'
p1336
asS'good.n.02'
p1337
(lp1338
S'morality.n.01'
p1339
asS'checkers.n.01'
p1340
(lp1341
S'board_game.n.01'
p1342
asS'criminal.n.01'
p1343
(lp1344
S'hood.n.01'
p1345
asS'approval.n.04'
p1346
(lp1347
S'encouragement.n.01'
p1348
asS'rima.n.01'
p1349
(lp1350
S'mouth.n.01'
p1351
asS'inclination.n.01'
p1352
(lp1353
S'bent.n.01'
p1354
asS'hood.n.01'
p1355
(lp1356
S'criminal.n.01'
p1357
asS'confront.v.01'
p1358
(lp1359
sS'change_by_reversal.v.01'
p1360
(lp1361
S'undo.v.01'
p1362
asS'explanation.n.02'
p1363
(lp1364
S'theory.n.01'
p1365
asS'binary_compound.n.01'
p1366
(lp1367
S'water.n.01'
p1368
asS'goblin.n.01'
p1369
(lp1370
S'evil_spirit.n.01'
p1371
asS'depart.v.03'
p1372
(lp1373
S'leave.v.01'
p1374
asS'standing.n.01'
p1375
(lp1376
S'prestige.n.01'
p1377
asS'gas.n.02'
p1378
(lp1379
S'hydrogen.n.01'
p1380
asS'durables.n.01'
p1381
(lp1382
S'appliance.n.02'
p1383
asS'rub.v.03'
p1384
(lp1385
S'irritate.v.02'
p1386
asS'vacation.n.01'
p1387
(lp1388
S'field_day.n.04'
p1389
asS'eat.v.01'
p1390
(lp1391
S'nibble.v.03'
p1392
asS'lunatic.n.01'
p1393
(lp1394
S'sick_person.n.01'
p1395
asS'rush.v.01'
p1396
(lp1397
S'dart.v.02'
p1398
aS'travel.v.01'
p1399
asS'measuring_instrument.n.01'
p1400
(lp1401
S'sextant.n.02'
p1402
asS'grain.n.02'
p1403
(lp1404
S'barley.n.01'
p1405
asS'nip.v.03'
p1406
(lp1407
S'cut.v.01'
p1408
asS'base.n.10'
p1409
(lp1410
S'pyrimidine.n.01'
p1411
asS'surface.n.01'
p1412
(lp1413
S'horizontal_surface.n.01'
p1414
asS'creator.n.02'
p1415
(lp1416
S'artist.n.01'
p1417
asS'ninety.n.01'
p1418
(lp1419
S'large_integer.n.01'
p1420
asS'superior_skill.n.01'
p1421
(lp1422
S'art.n.03'
p1423
asS'teach.v.01'
p1424
(lp1425
S'inform.v.01'
p1426
asS'carry.v.15'
p1427
(lp1428
S'circulate.v.02'
p1429
asS'illumination.n.02'
p1430
(lp1431
S'dark.n.01'
p1432
asS'support.n.06'
p1433
(lp1434
S'resource.n.01'
p1435
asS'etiquette.n.01'
p1436
(lp1437
S'rule.n.03'
p1438
asS'game.n.01'
p1439
(lp1440
S'card_game.n.01'
p1441
aS'athletic_game.n.01'
p1442
aS'parlor_game.n.01'
p1443
asS'know.v.05'
p1444
(lp1445
S'experience.v.01'
p1446
asS'cage.v.01'
p1447
(lp1448
S'confine.v.05'
p1449
asS'program.n.05'
p1450
(lp1451
S'announcement.n.02'
p1452
asS'covering.n.02'
p1453
(lp1454
S'screen.n.04'
p1455
aS'protective_covering.n.01'
p1456
aS'clothing.n.01'
p1457
asS'challenge.n.02'
p1458
(lp1459
S'gauntlet.n.01'
p1460
asS'leather.n.01'
p1461
(lp1462
S'animal_skin.n.01'
p1463
asS'covering.n.01'
p1464
(lp1465
S'body_covering.n.01'
p1466
asS'disagreement.n.03'
p1467
(lp1468
S'dispute.n.01'
p1469
asS'give.v.03'
p1470
(lp1471
S'supply.v.01'
p1472
asS'acoustic_device.n.01'
p1473
(lp1474
S'bell.n.01'
p1475
asS'decoration.n.01'
p1476
(lp1477
S'hanging.n.01'
p1478
aS'design.n.04'
p1479
asS'clean.v.07'
p1480
(lp1481
S'remove.v.01'
p1482
asS'bearing.n.02'
p1483
(lp1484
S'tack.n.01'
p1485
asS'language_unit.n.01'
p1486
(lp1487
S'word.n.01'
p1488
aS'name.n.01'
p1489
asS'area_unit.n.01'
p1490
(lp1491
S'acre.n.01'
p1492
asS'color.n.01'
p1493
(lp1494
S'chromatic_color.n.01'
p1495
asS'buttocks.n.01'
p1496
(lp1497
S'body_part.n.01'
p1498
asS'tuesday.n.01'
p1499
(lp1500
S'weekday.n.01'
p1501
asS'end.n.06'
p1502
(lp1503
S'state.n.02'
p1504
asS'kind.n.01'
p1505
(lp1506
S'category.n.02'
p1507
asS'count.n.02'
p1508
(lp1509
S'investigation.n.02'
p1510
asS'operations.n.01'
p1511
(lp1512
S'transaction.n.01'
p1513
asS'think_of.v.04'
p1514
(lp1515
sS'appliance.n.02'
p1516
(lp1517
S'home_appliance.n.01'
p1518
asS'unit_of_measurement.n.01'
p1519
(lp1520
S'linear_unit.n.01'
p1521
aS'area_unit.n.01'
p1522
asS'absorb.v.01'
p1523
(lp1524
S'sorb.v.01'
p1525
asS'stomp.v.01'
p1526
(lp1527
S'walk.v.01'
p1528
asS'definite_quantity.n.01'
p1529
(lp1530
S'unit_of_measurement.n.01'
p1531
aS'number.n.02'
p1532
asS'communicate.v.01'
p1533
(lp1534
S'request.v.01'
p1535
asS'cubby.n.01'
p1536
(lp1537
S'room.n.01'
p1538
asS'milk.v.01'
p1539
(lp1540
S'draw.v.07'
p1541
asS'halogen.n.01'
p1542
(lp1543
sS'attach.v.01'
p1544
(lp1545
S'nail.v.01'
p1546
asS'buzzword.n.01'
p1547
(lp1548
S'nonsense.n.01'
p1549
asS'sword.n.01'
p1550
(lp1551
S'weapon.n.01'
p1552
asS'wagon.n.01'
p1553
(lp1554
sS'vertebrate.n.01'
p1555
(lp1556
S'bird.n.01'
p1557
aS'mammal.n.01'
p1558
asS'implement.n.01'
p1559
(lp1560
S'tool.n.01'
p1561
aS'utensil.n.01'
p1562
asS'shape.n.02'
p1563
(lp1564
S'plume.n.01'
p1565
asS'problem.n.01'
p1566
(lp1567
S'difficulty.n.03'
p1568
asS'ungulate.n.01'
p1569
(lp1570
S'odd-toed_ungulate.n.01'
p1571
aS'even-toed_ungulate.n.01'
p1572
asS'run.v.03'
p1573
(lp1574
S'be.v.03'
p1575
asS'yard.n.01'
p1576
(lp1577
S'linear_unit.n.01'
p1578
asS'fancify.v.01'
p1579
(lp1580
S'groom.v.03'
p1581
asS'bend.v.01'
p1582
(lp1583
S'crouch.v.01'
p1584
asS'hair.n.01'
p1585
(lp1586
S'body_covering.n.01'
p1587
asS'subject.v.01'
p1588
(lp1589
S'affect.v.01'
p1590
asS'hospital.n.01'
p1591
(lp1592
S'medical_building.n.01'
p1593
asS'clergyman.n.01'
p1594
(lp1595
S'priest.n.01'
p1596
asS'bones.n.01'
p1597
(lp1598
S'percussion_instrument.n.01'
p1599
asS'indicate.v.03'
p1600
(lp1601
S'read.v.08'
p1602
asS'utensil.n.01'
p1603
(lp1604
S'kitchen_utensil.n.01'
p1605
asS'evidence.n.01'
p1606
(lp1607
S'symptom.n.01'
p1608
asS'topographic_point.n.01'
p1609
(lp1610
sS'teacher.n.01'
p1611
(lp1612
S'governess.n.01'
p1613
asS'concept.n.01'
p1614
(lp1615
S'abstraction.n.01'
p1616
aS'part.n.09'
p1617
aS'category.n.02'
p1618
asS'dislike.v.01'
p1619
(lp1620
S'hate.v.01'
p1621
asS'physical_condition.n.01'
p1622
(lp1623
S'hyperpigmentation.n.01'
p1624
aS'pathological_state.n.01'
p1625
asS'lagomorph.n.01'
p1626
(lp1627
S'leporid.n.01'
p1628
asS'failure.n.01'
p1629
(lp1630
S'nonaccomplishment.n.01'
p1631
asS'reason.v.03'
p1632
(lp1633
S'speculate.v.02'
p1634
asS'domestic_partner.n.01'
p1635
(lp1636
S'lover.n.03'
p1637
asS'demeanor.n.01'
p1638
(lp1639
S'manner.n.02'
p1640
asS'flower.n.01'
p1641
(lp1642
S'marigold.n.01'
p1643
asS'rodent.n.01'
p1644
(lp1645
S'mouse.n.01'
p1646
asS'worker.n.01'
p1647
(lp1648
S'assistant.n.01'
p1649
aS'employee.n.01'
p1650
asS'have.v.02'
p1651
(lp1652
S'wear.v.02'
p1653
asS'change.n.01'
p1654
(lp1655
S'twinkle.n.01'
p1656
asS'prod.n.02'
p1657
(lp1658
S'spur.n.04'
p1659
asS'change.n.03'
p1660
(lp1661
S'motion.n.03'
p1662
aS'motion.n.06'
p1663
aS'about-face.n.02'
p1664
asS'catching.n.01'
p1665
(lp1666
S'playing.n.02'
p1667
asS'touch.n.05'
p1668
(lp1669
S'tickle.n.02'
p1670
asS'physical_entity.n.01'
p1671
(lp1672
S'object.n.01'
p1673
aS'causal_agent.n.01'
p1674
aS'thing.n.12'
p1675
aS'process.n.06'
p1676
aS'matter.n.03'
p1677
asS'controlled_substance.n.01'
p1678
(lp1679
S'cannabis.n.02'
p1680
asS'bottle.n.01'
p1681
(lp1682
S'vessel.n.03'
p1683
asS'sorb.v.01'
p1684
(lp1685
S'absorb.v.01'
p1686
asS'narcotic.n.01'
p1687
(lp1688
S'soft_drug.n.01'
p1689
asS'aid.n.02'
p1690
(lp1691
S'activity.n.01'
p1692
asS'affect.v.01'
p1693
(lp1694
S'subject.v.01'
p1695
asS'condition.n.01'
p1696
(lp1697
S'disorderliness.n.01'
p1698
aS'physical_condition.n.01'
p1699
aS'psychological_state.n.01'
p1700
aS'unsoundness.n.01'
p1701
aS'difficulty.n.03'
p1702
asS'affect.v.05'
p1703
(lp1704
S'disturb.v.01'
p1705
asS'coding_system.n.01'
p1706
(lp1707
S'code.n.03'
p1708
asS'odd-toed_ungulate.n.01'
p1709
(lp1710
S'equine.n.01'
p1711
asS'arrangement.n.02'
p1712
(lp1713
S'array.n.01'
p1714
asS'garment.n.01'
p1715
(lp1716
S'shirt.n.01'
p1717
asS'commodity.n.01'
p1718
(lp1719
S'consumer_goods.n.01'
p1720
asS'reformer.n.01'
p1721
(lp1722
S'dry.n.01'
p1723
asS'enclose.v.03'
p1724
(lp1725
S'fence.v.01'
p1726
asS'simple.n.01'
p1727
(lp1728
S'herb.n.01'
p1729
asS'wash.v.03'
p1730
(lp1731
S'clean.v.01'
p1732
asS'piece_of_cloth.n.01'
p1733
(lp1734
S'handkerchief.n.01'
p1735
asS'ligament.n.02'
p1736
(lp1737
S'wire.n.01'
p1738
asS'standard.n.01'
p1739
(lp1740
S'medium_of_exchange.n.01'
p1741
asS'primus_stove.n.01'
p1742
(lp1743
S'stove.n.01'
p1744
asS'transfer.v.02'
p1745
(lp1746
S'convey.v.03'
p1747
asS'evening.n.01'
p1748
(lp1749
S'day.n.04'
p1750
asS'professional.n.01'
p1751
(lp1752
S'health_professional.n.01'
p1753
aS'educator.n.01'
p1754
asS'transfer.v.05'
p1755
(lp1756
S'give.v.03'
p1757
asS'speech_organ.n.01'
p1758
(lp1759
S'articulator.n.02'
p1760
asS'custom.n.01'
p1761
(lp1762
sS'nail.n.01'
p1763
(lp1764
S'horny_structure.n.01'
p1765
asS'administrative_unit.n.01'
p1766
(lp1767
S'united_nations_agency.n.01'
p1768
asS'juvenile.n.01'
p1769
(lp1770
S'child.n.01'
p1771
asS'think.v.01'
p1772
(lp1773
S'see.v.05'
p1774
asS'think.v.03'
p1775
(lp1776
S'reason.v.03'
p1777
aS'evaluate.v.02'
p1778
aS'concentrate.v.02'
p1779
aS'associate.v.01'
p1780
asS'dentition.n.02'
p1781
(lp1782
S'set.n.01'
p1783
asS'nickname.n.01'
p1784
(lp1785
S'appellation.n.01'
p1786
asS'leporid.n.01'
p1787
(lp1788
sS'mouse.n.01'
p1789
(lp1790
S'rodent.n.01'
p1791
asS'system_of_measurement.n.01'
p1792
(lp1793
S'standard.n.01'
p1794
asS'kitchen_utensil.n.01'
p1795
(lp1796
S'cooking_utensil.n.01'
p1797
asS'stupid.n.01'
p1798
(lp1799
S'simpleton.n.01'
p1800
asS'choose.v.01'
p1801
(lp1802
sS'juncture.n.01'
p1803
(lp1804
sS'knight.n.02'
p1805
(lp1806
S'chessman.n.01'
p1807
asS'nurse.n.01'
p1808
(lp1809
S'health_professional.n.01'
p1810
asS'happen.v.01'
p1811
(lp1812
S'proceed.v.04'
p1813
asS'evaluate.v.02'
p1814
(lp1815
S'impute.v.01'
p1816
aS'disapprove.v.02'
p1817
aS'think.v.01'
p1818
asS'musical_instrument.n.01'
p1819
(lp1820
S'percussion_instrument.n.01'
p1821
asS'communicator.n.01'
p1822
(lp1823
S'reporter.n.01'
p1824
asS'baseball_swing.n.01'
p1825
(lp1826
S'stroke.n.01'
p1827
asS'few.n.01'
p1828
(lp1829
S'elite.n.01'
p1830
asS'nut.n.01'
p1831
(lp1832
S'seed.n.01'
p1833
asS'hit.v.03'
p1834
(lp1835
S'smack.v.01'
p1836
asS'compass_point.n.01'
p1837
(lp1838
S'cardinal_compass_point.n.01'
p1839
asS'moment.n.02'
p1840
(lp1841
S'time.n.03'
p1842
asS'colors.n.02'
p1843
(lp1844
S'emblem.n.01'
p1845
asS'peak.n.04'
p1846
(lp1847
S'topographic_point.n.01'
p1848
asS'community.n.01'
p1849
(lp1850
S'parish.n.01'
p1851
asS'earth.n.02'
p1852
(lp1853
S'soil.n.02'
p1854
aS'material.n.01'
p1855
asS'stream.n.01'
p1856
(lp1857
S'river.n.01'
p1858
asS'convex_shape.n.01'
p1859
(lp1860
S'projection.n.05'
p1861
asS'lure.n.01'
p1862
(lp1863
S'attraction.n.03'
p1864
asS'visual_property.n.01'
p1865
(lp1866
S'color.n.01'
p1867
asS'horizontal.n.01'
p1868
(lp1869
S'orientation.n.03'
p1870
asS'body_of_water.n.01'
p1871
(lp1872
S'sea.n.01'
p1873
aS'channel.n.04'
p1874
asS'faculty.n.01'
p1875
(lp1876
S'volition.n.01'
p1877
asS'system.n.04'
p1878
(lp1879
S'organon.n.01'
p1880
asS'creation.n.02'
p1881
(lp1882
S'art.n.01'
p1883
asS'rest.v.01'
p1884
(lp1885
S'stand.v.01'
p1886
asS'actinic_radiation.n.01'
p1887
(lp1888
S'light.n.01'
p1889
asS'assemble.v.01'
p1890
(lp1891
S'join.v.02'
p1892
aS'make.v.03'
p1893
asS'shrub.n.01'
p1894
(lp1895
S'woody_plant.n.01'
p1896
asS'plume.n.01'
p1897
(lp1898
S'shape.n.02'
p1899
asS'clean.v.01'
p1900
(lp1901
S'wash.v.03'
p1902
asS'cart.n.01'
p1903
(lp1904
S'wagon.n.01'
p1905
asS'fly.v.01'
p1906
(lp1907
S'travel.v.01'
p1908
asS'rede.v.02'
p1909
(lp1910
S'hash_out.v.01'
p1911
asS'horse.n.01'
p1912
(lp1913
S'equine.n.01'
p1914
asS'suppose.v.01'
p1915
(lp1916
S'speculate.v.02'
p1917
asS'medium_of_exchange.n.01'
p1918
(lp1919
S'money.n.01'
p1920
asS'feeling.n.01'
p1921
(lp1922
S'passion.n.01'
p1923
asS'extremity.n.01'
p1924
(lp1925
S'limb.n.01'
p1926
asS'deterioration.n.01'
p1927
(lp1928
S'wear.n.01'
p1929
asS'stigmatize.v.01'
p1930
(lp1931
S'label.v.01'
p1932
asS'recite.v.02'
p1933
(lp1934
S'spell.v.01'
p1935
asS'real_number.n.01'
p1936
(lp1937
S'rational_number.n.01'
p1938
asS'court.n.10'
p1939
(lp1940
S'area.n.05'
p1941
asS'bulge.n.01'
p1942
(lp1943
S'wart.n.01'
p1944
asS'wrongdoing.n.02'
p1945
(lp1946
S'transgression.n.01'
p1947
aS'falsification.n.02'
p1948
asS'dairy_product.n.01'
p1949
(lp1950
S'cheese.n.01'
p1951
asS'cause_to_be_perceived.v.01'
p1952
(lp1953
S'sound.v.02'
p1954
asS'pounce.v.01'
p1955
(lp1956
S'descend.v.01'
p1957
asS'production.n.01'
p1958
(lp1959
S'devising.n.01'
p1960
asS'glower.v.01'
p1961
(lp1962
S'stare.v.02'
p1963
asS'worry.v.01'
p1964
(lp1965
S'fear.v.01'
p1966
asS'join.v.02'
p1967
(lp1968
S'assemble.v.01'
p1969
asS'digit.n.01'
p1970
(lp1971
sS'tableware.n.01'
p1972
(lp1973
S'cutlery.n.02'
p1974
asS'attraction.n.03'
p1975
(lp1976
sS'weapon.n.01'
p1977
(lp1978
S'brass_knucks.n.01'
p1979
asS'building_material.n.01'
p1980
(lp1981
S'lumber.n.01'
p1982
asS'quarrel.n.01'
p1983
(lp1984
S'dispute.n.01'
p1985
asS'till.n.01'
p1986
(lp1987
S'soil.n.02'
p1988
asS'psychological_state.n.01'
p1989
(lp1990
S'cognitive_state.n.01'
p1991
asS'walk.n.01'
p1992
(lp1993
S'plodding.n.02'
p1994
asS'cognitive_state.n.01'
p1995
(lp1996
S'curiosity.n.01'
p1997
asS'transgression.n.01'
p1998
(lp1999
S'vice.n.02'
p2000
asS'village.n.01'
p2001
(lp2002
S'community.n.01'
p2003
asS'change_state.v.01'
p2004
(lp2005
S'sorb.v.01'
p2006
asS'sound.v.02'
p2007
(lp2008
S'lap.v.03'
p2009
asS'piece.n.01'
p2010
(lp2011
S'piece_of_cloth.n.01'
p2012
asS'people.n.01'
p2013
(lp2014
S'class.n.03'
p2015
aS'group.n.01'
p2016
asS'talk_of.v.01'
p2017
(lp2018
S'hash_out.v.01'
p2019
asS'door.n.01'
p2020
(lp2021
S'movable_barrier.n.01'
p2022
asS'colony.n.01'
p2023
(lp2024
S'plantation.n.02'
p2025
asS'concern.n.01'
p2026
(lp2027
S'matter.n.01'
p2028
asS'react.v.01'
p2029
(lp2030
S'refuse.v.01'
p2031
asS'thymine.n.01'
p2032
(lp2033
S'pyrimidine.n.01'
p2034
asS'energy.n.01'
p2035
(lp2036
S'radiation.n.01'
p2037
asS'scent.v.02'
p2038
(lp2039
S'smell.v.01'
p2040
asS'time_off.n.01'
p2041
(lp2042
S'leisure.n.01'
p2043
asS'ware.n.01'
p2044
(lp2045
S'tableware.n.01'
p2046
asS'explain.v.01'
p2047
(lp2048
S'inform.v.01'
p2049
asS'rational_motive.n.01'
p2050
(lp2051
S'reason.n.01'
p2052
asS'size.n.01'
p2053
(lp2054
sS'thursday.n.01'
p2055
(lp2056
S'weekday.n.01'
p2057
asS'reflex.n.01'
p2058
(lp2059
S'blink.n.01'
p2060
asS'board_game.n.01'
p2061
(lp2062
S'checkers.n.01'
p2063
asS'undoing.n.01'
p2064
(lp2065
S'about-face.n.02'
p2066
asS'molt.n.01'
p2067
(lp2068
S'shedding.n.01'
p2069
asS'move.v.13'
p2070
(lp2071
S'change.v.02'
p2072
asS'attack.v.01'
p2073
(lp2074
sS'number.n.02'
p2075
(lp2076
S'integer.n.01'
p2077
aS'complex_number.n.01'
p2078
asS'see.v.05'
p2079
(lp2080
S'think.v.01'
p2081
asS'offspring.n.01'
p2082
(lp2083
S'child.n.02'
p2084
asS'clothing.n.01'
p2085
(lp2086
S'apparel.n.01'
p2087
aS'garment.n.01'
p2088
aS'accessory.n.01'
p2089
asS'electrical_discharge.n.01'
p2090
(lp2091
S'atmospheric_electricity.n.01'
p2092
asS'stroke.n.01'
p2093
(lp2094
sS'chemical_element.n.01'
p2095
(lp2096
sS'high.n.01'
p2097
(lp2098
S'degree.n.01'
p2099
asS'rule.n.03'
p2100
(lp2101
S'etiquette.n.01'
p2102
asS'drink.n.02'
p2103
(lp2104
S'intemperance.n.02'
p2105
asS'art.n.03'
p2106
(lp2107
S'falconry.n.01'
p2108
asS'fortification.n.01'
p2109
(lp2110
S'defensive_structure.n.01'
p2111
asS'furnishing.n.02'
p2112
(lp2113
S'furniture.n.01'
p2114
asS'equipment.n.01'
p2115
(lp2116
S'game_equipment.n.01'
p2117
asS'auditory_communication.n.01'
p2118
(lp2119
S'music.n.01'
p2120
asS'exceed.v.02'
p2121
(lp2122
S'excel.v.01'
p2123
asS'payment.n.01'
p2124
(lp2125
S'penalty.n.02'
p2126
asS'status.n.01'
p2127
(lp2128
S'holy_order.n.01'
p2129
aS'standing.n.01'
p2130
aS'high_status.n.01'
p2131
asS'feed.n.01'
p2132
(lp2133
S'fodder.n.02'
p2134
asS'devising.n.01'
p2135
(lp2136
S'production.n.01'
p2137
asS'precedence.n.01'
p2138
(lp2139
S'high_status.n.01'
p2140
asS'wood.n.01'
p2141
(lp2142
S'sawdust.n.01'
p2143
asS'male_aristocrat.n.01'
p2144
(lp2145
S'sir.n.02'
p2146
asS'penalty.n.02'
p2147
(lp2148
S'fine.n.01'
p2149
asS'be_active.v.01'
p2150
(lp2151
sS'palace.n.01'
p2152
(lp2153
S'mansion.n.02'
p2154
asS'united_nations_agency.n.01'
p2155
(lp2156
S'world_health_organization.n.01'
p2157
asS'tan.n.01'
p2158
(lp2159
S'hyperpigmentation.n.01'
p2160
asS'liquid_body_substance.n.01'
p2161
(lp2162
S'semen.n.01'
p2163
asS'radiation.n.01'
p2164
(lp2165
S'electromagnetic_radiation.n.01'
p2166
asS'career.n.01'
p2167
(lp2168
S'occupation.n.01'
p2169
asS'class.n.03'
p2170
(lp2171
S'upper_class.n.01'
p2172
asS'plant_part.n.01'
p2173
(lp2174
S'plant_organ.n.01'
p2175
asS'sweat.v.01'
p2176
(lp2177
S'excrete.v.01'
p2178
asS'interact.v.01'
p2179
(lp2180
S'communicate.v.02'
p2181
asS'front.v.02'
p2182
(lp2183
S'confront.v.01'
p2184
asS'amerindian.n.01'
p2185
(lp2186
sS'time.n.05'
p2187
(lp2188
S'past.n.01'
p2189
asS'fluid.n.02'
p2190
(lp2191
S'gas.n.02'
p2192
aS'liquid.n.03'
p2193
asS'time.n.01'
p2194
(lp2195
S'case.n.01'
p2196
asS'part.n.02'
p2197
(lp2198
S'piece.n.01'
p2199
asS'part.n.03'
p2200
(lp2201
S'body_part.n.01'
p2202
asS'injustice.n.02'
p2203
(lp2204
S'wrong.n.01'
p2205
asS'part.n.01'
p2206
(lp2207
S'substance.n.01'
p2208
aS'language_unit.n.01'
p2209
asS'adult.n.01'
p2210
(lp2211
S'woman.n.01'
p2212
aS'professional.n.01'
p2213
asS'wheel.n.01'
p2214
(lp2215
S'cartwheel.n.01'
p2216
aS'machine.n.04'
p2217
asS'part.n.09'
p2218
(lp2219
S'component.n.01'
p2220
asS'play.n.03'
p2221
(lp2222
S'football_play.n.01'
p2223
asS'mention.v.01'
p2224
(lp2225
S'think_of.v.04'
p2226
asS'chordate.n.01'
p2227
(lp2228
S'vertebrate.n.01'
p2229
asS'defensive_structure.n.01'
p2230
(lp2231
S'fortification.n.01'
p2232
asS'laugh.v.01'
p2233
(lp2234
S'express_emotion.v.01'
p2235
asS'extremity.n.05'
p2236
(lp2237
S'vertebrate_foot.n.01'
p2238
asS'baize.n.01'
p2239
(lp2240
S'fabric.n.01'
p2241
asS'two.n.01'
p2242
(lp2243
S'digit.n.01'
p2244
asS'coach.n.02'
p2245
(lp2246
S'teacher.n.01'
p2247
asS'extremity.n.04'
p2248
(lp2249
S'boundary.n.01'
p2250
asS'measure.n.02'
p2251
(lp2252
S'system_of_measurement.n.01'
p2253
aS'definite_quantity.n.01'
p2254
aS'fundamental_quantity.n.01'
p2255
aS'time_interval.n.01'
p2256
aS'time_unit.n.01'
p2257
aS'point.n.06'
p2258
aS'relative_quantity.n.01'
p2259
asS'hoof.n.01'
p2260
(lp2261
S'animal_foot.n.01'
p2262
asS'crouch.v.01'
p2263
(lp2264
S'bend.v.01'
p2265
asS'way.n.06'
p2266
(lp2267
S'lane.n.01'
p2268
asS'tour.v.01'
p2269
(lp2270
sS'soil.n.02'
p2271
(lp2272
S'till.n.01'
p2273
aS'clay.n.01'
p2274
asS'strait.n.01'
p2275
(lp2276
S'narrow.n.01'
p2277
asS'organic_process.n.01'
p2278
(lp2279
S'parturition.n.01'
p2280
aS'shedding.n.01'
p2281
aS'bodily_process.n.01'
p2282
asS'caruncle.n.01'
p2283
(lp2284
S'wattle.n.01'
p2285
asS'peace.n.01'
p2286
(lp2287
S'order.n.03'
p2288
asS'distance.n.03'
p2289
(lp2290
S'size.n.01'
p2291
asS'conformity.n.02'
p2292
(lp2293
S'keeping.n.01'
p2294
asS'flash.n.03'
p2295
(lp2296
S'experience.n.03'
p2297
asS'furnishing.n.01'
p2298
(lp2299
S'accessory.n.01'
p2300
asS'boom.n.01'
p2301
(lp2302
S'noise.n.01'
p2303
asS'starches.n.01'
p2304
(lp2305
S'bread.n.01'
p2306
asS'written_symbol.n.01'
p2307
(lp2308
S'character.n.08'
p2309
asS'noisemaker.n.01'
p2310
(lp2311
S'horn.n.01'
p2312
asS'originate.v.01'
p2313
(lp2314
S'come.v.05'
p2315
aS'become.v.03'
p2316
asS'waste.n.01'
p2317
(lp2318
S'garbage.n.01'
p2319
asS'educator.n.01'
p2320
(lp2321
S'teacher.n.01'
p2322
asS'afternoon.n.01'
p2323
(lp2324
S'day.n.04'
p2325
asS'astatine.n.01'
p2326
(lp2327
S'halogen.n.01'
p2328
aS'chemical_element.n.01'
p2329
asS'geographical_area.n.01'
p2330
(lp2331
S'tract.n.01'
p2332
asS'housing.n.01'
p2333
(lp2334
S'apartment.n.01'
p2335
aS'dwelling.n.01'
p2336
asS'control.v.01'
p2337
(lp2338
S'manage.v.02'
p2339
asS'visit.v.01'
p2340
(lp2341
S'tour.v.01'
p2342
asS'horn.n.01'
p2343
(lp2344
S'noisemaker.n.01'
p2345
asS'foodstuff.n.02'
p2346
(lp2347
S'dairy_product.n.01'
p2348
aS'ingredient.n.03'
p2349
aS'starches.n.01'
p2350
aS'grain.n.02'
p2351
asS'cheering.n.01'
p2352
(lp2353
S'encouragement.n.01'
p2354
asS'weather.n.01'
p2355
(lp2356
S'atmospheric_phenomenon.n.01'
p2357
aS'precipitation.n.03'
p2358
asS'fall.v.21'
p2359
(lp2360
S'change_hands.v.01'
p2361
asS'dry.n.01'
p2362
(lp2363
S'reformer.n.01'
p2364
asS'astrology.n.01'
p2365
(lp2366
S'pseudoscience.n.01'
p2367
asS'tool.n.01'
p2368
(lp2369
S'implement.n.01'
p2370
aS'garden_tool.n.01'
p2371
aS'cutting_implement.n.01'
p2372
asS'code.n.03'
p2373
(lp2374
S'software.n.01'
p2375
asS'shooting.n.01'
p2376
(lp2377
S'propulsion.n.02'
p2378
asS'perch.v.01'
p2379
(lp2380
S'sit.v.01'
p2381
asS'sir.n.02'
p2382
(lp2383
S'male_aristocrat.n.01'
p2384
asS'wine.n.01'
p2385
(lp2386
S'alcohol.n.01'
p2387
asS'hawk.n.01'
p2388
(lp2389
S'goshawk.n.01'
p2390
asS'artifact.n.01'
p2391
(lp2392
S'decoration.n.01'
p2393
aS'covering.n.02'
p2394
aS'layer.n.01'
p2395
aS'structure.n.01'
p2396
aS'instrumentality.n.03'
p2397
aS'commodity.n.01'
p2398
aS'way.n.06'
p2399
aS'building_material.n.01'
p2400
aS'excavation.n.03'
p2401
aS'fabric.n.01'
p2402
aS'creation.n.02'
p2403
aS'surface.n.01'
p2404
aS'line.n.18'
p2405
aS'article.n.02'
p2406
asS'sick_person.n.01'
p2407
(lp2408
S'lunatic.n.01'
p2409
asS'shirt.n.01'
p2410
(lp2411
S'garment.n.01'
p2412
asS'herb.n.01'
p2413
(lp2414
S'simple.n.01'
p2415
asS'relation.n.01'
p2416
(lp2417
S'part.n.01'
p2418
aS'possession.n.02'
p2419
aS'position.n.07'
p2420
asS'machine.n.04'
p2421
(lp2422
S'wheel.n.01'
p2423
asS'fraction.n.03'
p2424
(lp2425
S'common_fraction.n.01'
p2426
asS'kitchen_appliance.n.01'
p2427
(lp2428
S'stove.n.01'
p2429
asS'family.n.01'
p2430
(lp2431
S'unit.n.03'
p2432
asS'crusade.v.01'
p2433
(lp2434
S'advertise.v.02'
p2435
asS'season.n.02'
p2436
(lp2437
S'winter.n.01'
p2438
asS'undergo.v.01'
p2439
(lp2440
sS'rain.n.01'
p2441
(lp2442
S'precipitation.n.03'
p2443
asS'product.n.02'
p2444
(lp2445
S'work.n.02'
p2446
asS'linear_unit.n.01'
p2447
(lp2448
S'yard.n.01'
p2449
asS'vessel.n.03'
p2450
(lp2451
S'bottle.n.01'
p2452
aS'pot.n.01'
p2453
asS'quality.n.01'
p2454
(lp2455
S'good.n.03'
p2456
asS'noble_metal.n.01'
p2457
(lp2458
S'silver.n.01'
p2459
asS'shelf.n.01'
p2460
(lp2461
S'support.n.10'
p2462
asS'chase.v.01'
p2463
(lp2464
S'pursue.v.02'
p2465
asS'property.n.02'
p2466
(lp2467
S'visual_property.n.01'
p2468
aS'degree.n.01'
p2469
aS'magnitude.n.01'
p2470
aS'sound_property.n.01'
p2471
asS'property.n.01'
p2472
(lp2473
S'estate.n.01'
p2474
asS'week.n.01'
p2475
(lp2476
S'time_period.n.01'
p2477
asS'aim.n.02'
p2478
(lp2479
S'business.n.05'
p2480
asS'blow.n.01'
p2481
(lp2482
S'kick.n.01'
p2483
asS'seed.n.01'
p2484
(lp2485
S'nut.n.01'
p2486
asS'integer.n.01'
p2487
(lp2488
S'digit.n.01'
p2489
aS'large_integer.n.01'
p2490
asS'ill_health.n.01'
p2491
(lp2492
S'illness.n.01'
p2493
aS'infection.n.01'
p2494
asS'social_group.n.01'
p2495
(lp2496
sS'unsoundness.n.01'
p2497
(lp2498
S'decay.n.04'
p2499
asS'tap.v.07'
p2500
(lp2501
S'sound.v.02'
p2502
asS'servant.n.01'
p2503
(lp2504
S'body_servant.n.01'
p2505
aS'manservant.n.01'
p2506
asS'twinkle.n.01'
p2507
(lp2508
S'change.n.01'
p2509
asS'rap.v.01'
p2510
(lp2511
S'strike.v.01'
p2512
asS'spell.v.01'
p2513
(lp2514
S'recite.v.02'
p2515
asS'workshop.n.01'
p2516
(lp2517
S'workplace.n.01'
p2518
asS'caldron.n.01'
p2519
(lp2520
S'pot.n.01'
p2521
asS'agent.n.03'
p2522
(lp2523
S'drug.n.01'
p2524
asS'dame.n.01'
p2525
(lp2526
S'girl.n.01'
p2527
asS'scabies.n.01'
p2528
(lp2529
S'infection.n.01'
p2530
asS'startle.n.01'
p2531
(lp2532
S'reflex.n.01'
p2533
asS'air.v.03'
p2534
(lp2535
S'publicize.v.01'
p2536
asS'hanging.n.01'
p2537
(lp2538
S'decoration.n.01'
p2539
asS'attention.n.01'
p2540
(lp2541
S'basic_cognitive_process.n.01'
p2542
asS'disturb.v.01'
p2543
(lp2544
S'affect.v.05'
p2545
asS'bent.n.01'
p2546
(lp2547
S'inclination.n.01'
p2548
asS'sextant.n.02'
p2549
(lp2550
S'astrolabe.n.01'
p2551
asS'stare.v.02'
p2552
(lp2553
S'glower.v.01'
p2554
asS'bunch.v.02'
p2555
(lp2556
S'form.v.07'
p2557
asS'assets.n.01'
p2558
(lp2559
S'resource.n.01'
p2560
asS'orientation.n.03'
p2561
(lp2562
S'vertical.n.01'
p2563
asS'assistant.n.01'
p2564
(lp2565
S'worker.n.01'
p2566
asS'sawdust.n.01'
p2567
(lp2568
S'wood.n.01'
p2569
asS'sound.n.04'
p2570
(lp2571
S'noise.n.01'
p2572
asS'spirit.n.04'
p2573
(lp2574
S'evil_spirit.n.01'
p2575
asS'participant.n.01'
p2576
(lp2577
S'groom.n.01'
p2578
asS'rake.v.01'
p2579
(lp2580
S'move.v.02'
p2581
asS'stevedore.n.01'
p2582
(lp2583
S'laborer.n.01'
p2584
asS'carry.v.02'
p2585
(lp2586
S'have.v.02'
p2587
asS'large_integer.n.01'
p2588
(lp2589
sS'animal_foot.n.01'
p2590
(lp2591
S'hoof.n.01'
p2592
asS'feel.v.01'
p2593
(lp2594
S'harbor.v.01'
p2595
asS'religious_person.n.01'
p2596
(lp2597
S'believer.n.02'
p2598
asS'misconception.n.01'
p2599
(lp2600
S'fallacy.n.01'
p2601
asS'enough.n.01'
p2602
(lp2603
S'relative_quantity.n.01'
p2604
asS'residence.n.01'
p2605
(lp2606
S'home.n.01'
p2607
asS'woody_plant.n.01'
p2608
(lp2609
S'shrub.n.01'
p2610
asS'talk.v.02'
p2611
(lp2612
S'talk_of.v.01'
p2613
asS'lend.v.01'
p2614
(lp2615
S'change.v.01'
p2616
asS'chap.n.01'
p2617
(lp2618
S'male.n.02'
p2619
asS'parish.n.01'
p2620
(lp2621
S'community.n.01'
p2622
asS'vending.n.01'
p2623
(lp2624
S'selling.n.01'
p2625
asS'atmospheric_phenomenon.n.01'
p2626
(lp2627
S'weather.n.01'
p2628
aS'atmospheric_electricity.n.01'
p2629
asS'command.n.01'
p2630
(lp2631
S'speech_act.n.01'
p2632
asS'layer.n.01'
p2633
(lp2634
sS'decision.n.01'
p2635
(lp2636
S'move.n.01'
p2637
asS'bully.n.01'
p2638
(lp2639
S'attacker.n.01'
p2640
asS'shoulder.n.01'
p2641
(lp2642
S'body_part.n.01'
p2643
asS'tell.v.02'
p2644
(lp2645
S'publicize.v.01'
p2646
asS'shade.n.01'
p2647
(lp2648
S'semidarkness.n.01'
p2649
asS'software.n.01'
p2650
(lp2651
S'operating_system.n.01'
p2652
asS'gauntlet.n.01'
p2653
(lp2654
S'challenge.n.02'
p2655
asS'speculate.v.02'
p2656
(lp2657
sS'datum.n.01'
p2658
(lp2659
S'reading.n.03'
p2660
asS'worse.n.01'
p2661
(lp2662
S'bad.n.01'
p2663
asS'space.n.02'
p2664
(lp2665
S'opening.n.01'
p2666
asS'strike.v.01'
p2667
(lp2668
S'rap.v.01'
p2669
asS'process.n.05'
p2670
(lp2671
S'caruncle.n.01'
p2672
asS'outbuilding.n.01'
p2673
(lp2674
S'kennel.n.01'
p2675
asS'publicize.v.01'
p2676
(lp2677
sS'groom.n.01'
p2678
(lp2679
S'participant.n.01'
p2680
asS'feather.n.01'
p2681
(lp2682
S'hackle.n.01'
p2683
asS'south.n.03'
p2684
(lp2685
S'cardinal_compass_point.n.01'
p2686
asS'blow.v.01'
p2687
(lp2688
S'pant.v.01'
p2689
asS'coat.n.01'
p2690
(lp2691
S'overgarment.n.01'
p2692
aS'jacket.n.01'
p2693
asS'sea.n.01'
p2694
(lp2695
S'body_of_water.n.01'
p2696
asS'criticism.n.01'
p2697
(lp2698
S'disapproval.n.02'
p2699
aS'rebuke.n.01'
p2700
asS'object.n.01'
p2701
(lp2702
S'land.n.04'
p2703
aS'land.n.02'
p2704
aS'location.n.01'
p2705
asS'activity.n.01'
p2706
(lp2707
S'aid.n.02'
p2708
aS'wrongdoing.n.02'
p2709
aS'occupation.n.01'
p2710
aS'game.n.01'
p2711
aS'attempt.n.01'
p2712
aS'diversion.n.01'
p2713
asS'screen.v.03'
p2714
(lp2715
S'choose.v.01'
p2716
asS'device.n.01'
p2717
(lp2718
S'instrument.n.01'
p2719
asS'bench.n.01'
p2720
(lp2721
S'seat.n.03'
p2722
asS'perceive.v.01'
p2723
(lp2724
S'smell.v.01'
p2725
asS'consequence.n.01'
p2726
(lp2727
S'phenomenon.n.01'
p2728
asS'award.n.02'
p2729
(lp2730
S'academic_degree.n.01'
p2731
asS'highway.n.01'
p2732
(lp2733
S'expressway.n.01'
p2734
asS'insect.n.01'
p2735
(lp2736
S'queen.n.01'
p2737
asS'winter.n.01'
p2738
(lp2739
S'season.n.02'
p2740
asS'component.n.01'
p2741
(lp2742
S'part.n.09'
p2743
asS'woman.n.01'
p2744
(lp2745
S'mistress.n.01'
p2746
aS'girl.n.01'
p2747
asS'eden.n.01'
p2748
(lp2749
S'region.n.01'
p2750
asS'natural_object.n.01'
p2751
(lp2752
sS'hour.n.02'
p2753
(lp2754
S'sunset.n.01'
p2755
asS'follower.n.01'
p2756
(lp2757
S'inferior.n.01'
p2758
asS'fluid.n.01'
p2759
(lp2760
S'liquid.n.01'
p2761
asS'maid.n.02'
p2762
(lp2763
S'girl.n.01'
p2764
asS'swivel.n.01'
p2765
(lp2766
S'coupling.n.02'
p2767
asS'brown.n.01'
p2768
(lp2769
S'chromatic_color.n.01'
p2770
asS'unit.n.03'
p2771
(lp2772
S'family.n.01'
p2773
aS'administrative_unit.n.01'
p2774
aS'political_unit.n.01'
p2775
aS'military_unit.n.01'
p2776
asS'result.n.03'
p2777
(lp2778
S'worst.n.01'
p2779
asS'garbage.n.01'
p2780
(lp2781
S'waste.n.01'
p2782
asS'time_unit.n.01'
p2783
(lp2784
S'day.n.01'
p2785
asS'aristocrat.n.01'
p2786
(lp2787
S'prince.n.01'
p2788
aS'male_aristocrat.n.01'
p2789
asS'muscle.n.01'
p2790
(lp2791
S'contractile_organ.n.01'
p2792
asS'pair.n.03'
p2793
(lp2794
S'couple.n.01'
p2795
asS'building.n.01'
p2796
(lp2797
S'outbuilding.n.01'
p2798
aS'house.n.01'
p2799
aS'medical_building.n.01'
p2800
aS'farm_building.n.01'
p2801
asS'stool.v.04'
p2802
(lp2803
S'excrete.v.01'
p2804
asS'five.n.01'
p2805
(lp2806
S'digit.n.01'
p2807
asS'propulsion.n.02'
p2808
(lp2809
S'shooting.n.01'
p2810
asS'deception.n.02'
p2811
(lp2812
S'pretense.n.01'
p2813
asS'dwelling.n.01'
p2814
(lp2815
S'house.n.01'
p2816
asS'difficulty.n.03'
p2817
(lp2818
S'problem.n.01'
p2819
asS'separate.v.02'
p2820
(lp2821
S'cut.v.01'
p2822
asS'disorder.v.02'
p2823
(lp2824
S'scramble.v.03'
p2825
asS'one.n.01'
p2826
(lp2827
S'digit.n.01'
p2828
asS'signal.n.01'
p2829
(lp2830
S'symbol.n.01'
p2831
asS'lawn_mower.n.01'
p2832
(lp2833
S'garden_tool.n.01'
p2834
asS'holy_order.n.01'
p2835
(lp2836
S'priest.n.01'
p2837
asS'gathering.n.01'
p2838
(lp2839
S'community.n.01'
p2840
aS'pair.n.03'
p2841
asS'causal_agent.n.01'
p2842
(lp2843
S'person.n.01'
p2844
aS'agent.n.03'
p2845
asS'floor.n.02'
p2846
(lp2847
S'structure.n.01'
p2848
asS'lightning.n.01'
p2849
(lp2850
S'thunderbolt.n.01'
p2851
asS'wear.v.02'
p2852
(lp2853
S'have.v.02'
p2854
asS'note.v.01'
p2855
(lp2856
S'comment.v.01'
p2857
asS'long_time.n.01'
p2858
(lp2859
S'time_period.n.01'
p2860
asS'twenty.n.01'
p2861
(lp2862
S'large_integer.n.01'
p2863
asS'hate.v.01'
p2864
(lp2865
S'abhor.v.01'
p2866
asS'furniture.n.01'
p2867
(lp2868
S'seat.n.03'
p2869
asS'governess.n.01'
p2870
(lp2871
S'teacher.n.01'
p2872
asS'recess.n.04'
p2873
(lp2874
S'fireplace.n.01'
p2875
asS'table.n.01'
p2876
(lp2877
S'contents.n.01'
p2878
asS'trouble.n.03'
p2879
(lp2880
S'affliction.n.03'
p2881
asS'cheese.n.01'
p2882
(lp2883
S'dairy_product.n.01'
p2884
aS'food.n.02'
p2885
asS'ruminant.n.01'
p2886
(lp2887
S'bovid.n.01'
p2888
asS'maneuver.n.03'
p2889
(lp2890
S'stroke.n.01'
p2891
asS'talk.v.01'
p2892
(lp2893
S'communicate.v.02'
p2894
asS'limb.n.01'
p2895
(lp2896
S'arm.n.01'
p2897
asS'beget.v.01'
p2898
(lp2899
S'make.v.03'
p2900
asS'dispute.n.01'
p2901
(lp2902
S'quarrel.n.01'
p2903
asS'horsemanship.n.01'
p2904
(lp2905
S'skill.n.01'
p2906
asS'maneuver.n.04'
p2907
(lp2908
S'measure.n.01'
p2909
asS'lamp.n.01'
p2910
(lp2911
S'candle.n.01'
p2912
asS'illness.n.01'
p2913
(lp2914
S'disease.n.01'
p2915
asS'discharge.n.01'
p2916
(lp2917
S'electrical_discharge.n.01'
p2918
asS'get.v.01'
p2919
(lp2920
S'capture.v.06'
p2921
asS'even-toed_ungulate.n.01'
p2922
(lp2923
S'ruminant.n.01'
p2924
asS'rotation.n.01'
p2925
(lp2926
S'motion.n.03'
p2927
asS'better.v.02'
p2928
(lp2929
S'fancify.v.01'
p2930
asS'change_shape.v.01'
p2931
(lp2932
S'bend.v.01'
p2933
asS'state.n.02'
p2934
(lp2935
S'end.n.06'
p2936
aS'order.n.03'
p2937
asS'writing.n.02'
p2938
(lp2939
S'section.n.01'
p2940
asS'animal_tissue.n.01'
p2941
(lp2942
S'connective_tissue.n.01'
p2943
asS'character.n.08'
p2944
(lp2945
S'letter.n.02'
p2946
asS'jerkin.n.01'
p2947
(lp2948
S'jacket.n.01'
p2949
asS'outgo.n.01'
p2950
(lp2951
S'cost.n.01'
p2952
asS'field.n.01'
p2953
(lp2954
S'tract.n.01'
p2955
asS'candle.n.01'
p2956
(lp2957
S'lamp.n.01'
p2958
asS'stay.v.01'
p2959
(lp2960
S'be.v.01'
p2961
asS'move.v.02'
p2962
(lp2963
sS'move.v.03'
p2964
(lp2965
sS'eye.n.01'
p2966
(lp2967
S'sense_organ.n.01'
p2968
asS'couple.n.01'
p2969
(lp2970
S'pair.n.03'
p2971
asS'prince.n.01'
p2972
(lp2973
S'maharaja.n.01'
p2974
asS'emblem.n.01'
p2975
(lp2976
S'colors.n.02'
p2977
asS'solid.n.01'
p2978
(lp2979
S'glass.n.01'
p2980
aS'food.n.02'
p2981
asS'inform.v.01'
p2982
(lp2983
S'warn.v.01'
p2984
asS'group_action.n.01'
p2985
(lp2986
S'military_action.n.01'
p2987
aS'cooperation.n.01'
p2988
aS'transaction.n.01'
p2989
asS'archery.n.01'
p2990
(lp2991
S'sport.n.01'
p2992
asS'hack.v.02'
p2993
(lp2994
S'cope.v.01'
p2995
asS'hole.n.01'
p2996
(lp2997
S'opening.n.01'
p2998
asS'park.n.02'
p2999
(lp3000
S'tract.n.01'
p3001
asS'thatch.v.01'
p3002
(lp3003
S'roof.v.01'
p3004
asS'unrighteousness.n.01'
p3005
(lp3006
S'injustice.n.02'
p3007
asS'fence.v.01'
p3008
(lp3009
S'enclose.v.03'
p3010
asS'act.v.01'
p3011
(lp3012
S'interact.v.01'
p3013
aS'cope.v.01'
p3014
aS'react.v.01'
p3015
asS'placental.n.01'
p3016
(lp3017
S'lagomorph.n.01'
p3018
aS'ungulate.n.01'
p3019
aS'rodent.n.01'
p3020
asS'eat.v.02'
p3021
(lp3022
S'eat.v.01'
p3023
asS'area.n.05'
p3024
(lp3025
sS'drug.n.01'
p3026
(lp3027
S'drug_of_abuse.n.01'
p3028
aS'controlled_substance.n.01'
p3029
aS'narcotic.n.01'
p3030
asS'fabric.n.01'
p3031
(lp3032
S'sacking.n.01'
p3033
asS'selling.n.01'
p3034
(lp3035
S'vending.n.01'
p3036
asS'conclusion.n.08'
p3037
(lp3038
S'section.n.01'
p3039
asS'invertebrate.n.01'
p3040
(lp3041
S'arthropod.n.01'
p3042
asS'ride.v.01'
p3043
(lp3044
S'ride_horseback.v.01'
p3045
asS'pursue.v.02'
p3046
(lp3047
sS'being.n.01'
p3048
(lp3049
S'life.n.01'
p3050
aS'state.n.02'
p3051
asS'he.n.02'
p3052
(lp3053
S'letter.n.02'
p3054
asS'mansion.n.02'
p3055
(lp3056
S'palace.n.01'
p3057
asS'tongue.n.01'
p3058
(lp3059
S'organ.n.01'
p3060
aS'articulator.n.02'
p3061
asS'spasm.n.01'
p3062
(lp3063
S'crick.n.01'
p3064
asS'curiosity.n.01'
p3065
(lp3066
S'interest.n.01'
p3067
asS'natural_phenomenon.n.01'
p3068
(lp3069
S'physical_phenomenon.n.01'
p3070
asS'symptom.n.01'
p3071
(lp3072
S'dizziness.n.01'
p3073
asS'fork.n.01'
p3074
(lp3075
S'cutlery.n.02'
p3076
asS'nail.v.01'
p3077
(lp3078
S'attach.v.01'
p3079
asS'attacker.n.01'
p3080
(lp3081
S'bully.n.01'
p3082
asS'basics.n.01'
p3083
(lp3084
S'fact.n.02'
p3085
asS'connective_tissue.n.01'
p3086
(lp3087
S'skin.n.01'
p3088
asS'thing.n.01'
p3089
(lp3090
S'situation.n.01'
p3091
asS'blink.n.01'
p3092
(lp3093
S'reflex.n.01'
p3094
asS'bovid.n.01'
p3095
(lp3096
S'bovine.n.01'
p3097
asS'rock.n.01'
p3098
(lp3099
S'natural_object.n.01'
p3100
asS'draw.v.07'
p3101
(lp3102
S'milk.v.01'
p3103
asS'stable.n.01'
p3104
(lp3105
S'farm_building.n.01'
p3106
asS'touch.v.01'
p3107
(lp3108
S'strike.v.01'
p3109
aS'hit.v.03'
p3110
asS'marigold.n.01'
p3111
(lp3112
S'flower.n.01'
p3113
asS'barley.n.01'
p3114
(lp3115
S'grain.n.02'
p3116
asS'touch.v.05'
p3117
(lp3118
S'surround.v.01'
p3119
asS'bodily_process.n.01'
p3120
(lp3121
S'reaction.n.03'
p3122
asS'boundary.n.01'
p3123
(lp3124
S'edge.n.01'
p3125
asS'arm.n.01'
p3126
(lp3127
S'limb.n.01'
p3128
asS'sport.n.01'
p3129
(lp3130
S'archery.n.01'
p3131
aS'athletic_game.n.01'
p3132
asS'farm_building.n.01'
p3133
(lp3134
S'stable.n.01'
p3135
asS'goal.n.01'
p3136
(lp3137
S'aim.n.02'
p3138
asS'question.n.02'
p3139
(lp3140
S'subject.n.01'
p3141
asS'one-half.n.01'
p3142
(lp3143
S'common_fraction.n.01'
p3144
asS'assassin.n.01'
p3145
(lp3146
S'murderer.n.01'
p3147
asS'apartment.n.01'
p3148
(lp3149
S'housing.n.01'
p3150
asS'naris.n.01'
p3151
(lp3152
S'nostril.n.01'
p3153
asS'body_part.n.01'
p3154
(lp3155
S'abdomen.n.01'
p3156
asS'publicist.n.01'
p3157
(lp3158
S'advertiser.n.01'
p3159
asS'semidarkness.n.01'
p3160
(lp3161
S'shade.n.01'
p3162
asS'work.v.02'
p3163
(lp3164
S'labor.v.02'
p3165
asS'pathological_state.n.01'
p3166
(lp3167
S'ill_health.n.01'
p3168
asS'decay.n.04'
p3169
(lp3170
S'deterioration.n.01'
p3171
asS'pitchfork.v.01'
p3172
(lp3173
S'lift.v.02'
p3174
asS'advance.v.01'
p3175
(lp3176
S'elapse.v.01'
p3177
asS'chemical.n.01'
p3178
(lp3179
S'compound.n.02'
p3180
asS'engineering.n.02'
p3181
(lp3182
sS'antonym.n.01'
p3183
(lp3184
S'word.n.01'
p3185
asS'time_interval.n.01'
p3186
(lp3187
S'interim.n.01'
p3188
asS'reaction.n.03'
p3189
(lp3190
S'reflex.n.01'
p3191
asS'compound.n.02'
p3192
(lp3193
S'binary_compound.n.01'
p3194
aS'base.n.10'
p3195
asS'athletic_game.n.01'
p3196
(lp3197
S'outdoor_game.n.01'
p3198
asS'change_hands.v.01'
p3199
(lp3200
S'fall.v.21'
p3201
asS'shedding.n.01'
p3202
(lp3203
S'molt.n.01'
p3204
asS'hunt.v.01'
p3205
(lp3206
S'foxhunt.v.01'
p3207
asS'soft_drug.n.01'
p3208
(lp3209
S'cannabis.n.02'
p3210
asS'meet.v.10'
p3211
(lp3212
S'confront.v.01'
p3213
asS'estate.n.01'
p3214
(lp3215
S'property.n.01'
p3216
asS'letters.n.01'
p3217
(lp3218
S'culture.n.02'
p3219
asS'clay.n.01'
p3220
(lp3221
S'daub.n.01'
p3222
asS'inferior.n.01'
p3223
(lp3224
S'follower.n.01'
p3225
asS'mews.n.01'
p3226
(lp3227
S'street.n.01'
p3228
asS'attribute.n.02'
p3229
(lp3230
S'quality.n.01'
p3231
aS'property.n.02'
p3232
aS'state.n.02'
p3233
aS'shape.n.02'
p3234
aS'time.n.05'
p3235
aS'trait.n.01'
p3236
asS'discrimination.n.02'
p3237
(lp3238
S'taste.n.03'
p3239
asS'wrong.n.01'
p3240
(lp3241
S'injustice.n.02'
p3242
asS'language.n.01'
p3243
(lp3244
S'natural_language.n.01'
p3245
asS'worst.n.01'
p3246
(lp3247
S'result.n.03'
p3248
asS'intemperance.n.02'
p3249
(lp3250
sS'ending.n.04'
p3251
(lp3252
S'result.n.03'
p3253
asS'disputant.n.01'
p3254
(lp3255
S'reformer.n.01'
p3256
asS'proceed.v.04'
p3257
(lp3258
sS'propose.v.01'
p3259
(lp3260
S'declare.v.01'
p3261
asS'seven.n.01'
p3262
(lp3263
S'digit.n.01'
p3264
asS'believer.n.02'
p3265
(lp3266
S'religious_person.n.01'
p3267
asS'stroke.n.12'
p3268
(lp3269
S'blow.n.01'
p3270
asS'hold.v.03'
p3271
(lp3272
S'direct.v.04'
p3273
asS'tack.n.01'
p3274
(lp3275
S'bearing.n.02'
p3276
asS'cover.v.01'
p3277
(lp3278
S'roof.v.01'
p3279
asS'change.v.01'
p3280
(lp3281
S'lend.v.01'
p3282
aS'disorder.v.02'
p3283
asS'reproach.n.01'
p3284
(lp3285
S'blame.n.02'
p3286
asS'change.v.02'
p3287
(lp3288
S'move.v.13'
p3289
asS'reason.n.01'
p3290
(lp3291
S'rational_motive.n.01'
p3292
asS'barrack.n.01'
p3293
(lp3294
S'military_quarters.n.01'
p3295
asS'indo-european.n.02'
p3296
(lp3297
S'italic.n.02'
p3298
asS'storm.v.05'
p3299
(lp3300
S'attack.v.01'
p3301
asS'chessman.n.01'
p3302
(lp3303
S'knight.n.02'
p3304
asS'percussion_instrument.n.01'
p3305
(lp3306
S'bones.n.01'
p3307
asS'connection.n.03'
p3308
(lp3309
S'attachment.n.04'
p3310
asS'evil_spirit.n.01'
p3311
(lp3312
S'goblin.n.01'
p3313
asS'wear.n.01'
p3314
(lp3315
S'deterioration.n.01'
p3316
asS'while.n.01'
p3317
(lp3318
S'time.n.03'
p3319
asS'cooperation.n.01'
p3320
(lp3321
S'conformity.n.02'
p3322
asS'interest.n.01'
p3323
(lp3324
S'concern.n.01'
p3325
asS'modern.n.01'
p3326
(lp3327
S'person.n.01'
p3328
asS'appoint.v.02'
p3329
(lp3330
S'name.v.03'
p3331
asS'peer.n.01'
p3332
(lp3333
S'associate.n.01'
p3334
asS'wit.n.01'
p3335
(lp3336
S'joke.n.01'
p3337
asS'grouch.v.01'
p3338
(lp3339
S'complain.v.01'
p3340
asS'seat.n.04'
p3341
(lp3342
S'saddle.n.01'
p3343
asS'article.n.02'
p3344
(lp3345
S'ware.n.01'
p3346
asS'opening.n.01'
p3347
(lp3348
S'hole.n.01'
p3349
asS'diversion.n.01'
p3350
(lp3351
S'sport.n.01'
p3352
aS'play.n.14'
p3353
asS'fine.n.01'
p3354
(lp3355
S'penalty.n.02'
p3356
asS'remove.v.01'
p3357
(lp3358
S'draw.v.07'
p3359
asS'worsen.v.02'
p3360
(lp3361
S'irritate.v.02'
p3362
asS'money.n.01'
p3363
(lp3364
S'boodle.n.01'
p3365
asS'odds_and_ends.n.01'
p3366
(lp3367
S'assortment.n.01'
p3368
asS'vascular_plant.n.01'
p3369
(lp3370
S'herb.n.01'
p3371
aS'spermatophyte.n.01'
p3372
aS'woody_plant.n.01'
p3373
asS'attachment.n.04'
p3374
(lp3375
S'ligament.n.02'
p3376
asS'search.n.04'
p3377
(lp3378
S'pursuit.n.02'
p3379
asS'experience.n.03'
p3380
(lp3381
sS'ask.v.02'
p3382
(lp3383
S'request.v.02'
p3384
asS'put.v.01'
p3385
(lp3386
S'lay.v.02'
p3387
aS'move.v.02'
p3388
asS'vehicle.n.01'
p3389
(lp3390
S'wheeled_vehicle.n.01'
p3391
asS'reproductive_structure.n.01'
p3392
(lp3393
S'fruit.n.01'
p3394
asS'workplace.n.01'
p3395
(lp3396
S'workshop.n.01'
p3397
asS'west.n.02'
p3398
(lp3399
S'cardinal_compass_point.n.01'
p3400
asS'expense.n.01'
p3401
(lp3402
S'operating_expense.n.01'
p3403
asS'roof.v.01'
p3404
(lp3405
S'thatch.v.01'
p3406
asS'understand.v.01'
p3407
(lp3408
sS'pot.n.01'
p3409
(lp3410
S'caldron.n.01'
p3411
asS'spar.n.01'
p3412
(lp3413
S'mineral.n.01'
p3414
asS'descend.v.01'
p3415
(lp3416
S'pounce.v.01'
p3417
asS'sky.n.01'
p3418
(lp3419
S'atmosphere.n.05'
p3420
asS'nonsense.n.01'
p3421
(lp3422
sS'seat.n.03'
p3423
(lp3424
S'bench.n.01'
p3425
asS'wart.n.01'
p3426
(lp3427
S'bulge.n.01'
p3428
asS'goshawk.n.01'
p3429
(lp3430
S'hawk.n.01'
p3431
asS'beverage.n.01'
p3432
(lp3433
S'alcohol.n.01'
p3434
asS'higher_cognitive_process.n.01'
p3435
(lp3436
S'thinking.n.01'
p3437
aS'search.n.04'
p3438
aS'knowing.n.01'
p3439
asS'offer.v.01'
p3440
(lp3441
S'supply.v.01'
p3442
asS'floor.n.01'
p3443
(lp3444
S'horizontal_surface.n.01'
p3445
asS'july.n.01'
p3446
(lp3447
S'gregorian_calendar_month.n.01'
p3448
asS'dare.n.01'
p3449
(lp3450
S'challenge.n.02'
p3451
asS'twist.v.10'
p3452
(lp3453
S'injure.v.01'
p3454
asS'information_technology.n.01'
p3455
(lp3456
S'engineering.n.02'
p3457
asS'name.v.03'
p3458
(lp3459
S'appoint.v.02'
p3460
asS'three.n.01'
p3461
(lp3462
S'digit.n.01'
p3463
asS'failing.n.01'
p3464
(lp3465
S'imperfection.n.01'
p3466
asS'child.n.02'
p3467
(lp3468
S'male_offspring.n.01'
p3469
asS'ask.v.01'
p3470
(lp3471
S'communicate.v.02'
p3472
asS'warn.v.01'
p3473
(lp3474
S'inform.v.01'
p3475
asS'beginning.n.02'
p3476
(lp3477
S'point.n.06'
p3478
asS'transmit.v.04'
p3479
(lp3480
sS'announce.v.01'
p3481
(lp3482
S'advertise.v.01'
p3483
asS'object.v.01'
p3484
(lp3485
S'demur.v.01'
p3486
asS'negative.n.01'
p3487
(lp3488
S'no.n.01'
p3489
asS'no.n.01'
p3490
(lp3491
S'negative.n.01'
p3492
asS'conductor.n.02'
p3493
(lp3494
S'silver.n.01'
p3495
asS'giant.n.01'
p3496
(lp3497
S'animal.n.01'
p3498
asS'cold.n.01'
p3499
(lp3500
S'communicable_disease.n.01'
p3501
aS'respiratory_disease.n.01'
p3502
asS'survival.n.03'
p3503
(lp3504
S'custom.n.01'
p3505
asS'calendar_month.n.01'
p3506
(lp3507
S'time_period.n.01'
p3508
aS'gregorian_calendar_month.n.01'
p3509
asS'trait.n.01'
p3510
(lp3511
S'demeanor.n.01'
p3512
asS'demur.v.01'
p3513
(lp3514
S'object.v.01'
p3515
asS'history.n.01'
p3516
(lp3517
S'past.n.01'
p3518
asS'grow.v.08'
p3519
(lp3520
S'change.v.02'
p3521
asS'daub.n.01'
p3522
(lp3523
S'clay.n.01'
p3524
asS'fact.n.02'
p3525
(lp3526
S'basics.n.01'
p3527
asS'process.n.02'
p3528
(lp3529
S'higher_cognitive_process.n.01'
p3530
aS'basic_cognitive_process.n.01'
p3531
asS'book.n.01'
p3532
(lp3533
S'publication.n.01'
p3534
asS'room.n.01'
p3535
(lp3536
S'cubby.n.01'
p3537
asS'room.n.02'
p3538
(lp3539
S'position.n.07'
p3540
asS'label.v.01'
p3541
(lp3542
sS'unfortunate.n.01'
p3543
(lp3544
S'sick_person.n.01'
p3545
asS'decrease.v.01'
p3546
(lp3547
S'weaken.v.02'
p3548
asS'reporter.n.01'
p3549
(lp3550
S'communicator.n.01'
p3551
asS'nautical_linear_unit.n.01'
p3552
(lp3553
sS'body_covering.n.01'
p3554
(lp3555
S'hair.n.01'
p3556
asS'sparrow_hawk.n.01'
p3557
(lp3558
S'falcon.n.01'
p3559
asS'slat.n.01'
p3560
(lp3561
S'strip.n.05'
p3562
asS'mechanism.n.05'
p3563
(lp3564
S'mechanical_device.n.01'
p3565
asS'call_on_the_carpet.v.01'
p3566
(lp3567
S'knock.v.06'
p3568
asS'pass.v.05'
p3569
(lp3570
S'transfer.v.05'
p3571
asS'infection.n.01'
p3572
(lp3573
S'scabies.n.01'
p3574
asS'mechanical_device.n.01'
p3575
(lp3576
S'coupling.n.02'
p3577
aS'machine.n.04'
p3578
asS'array.n.01'
p3579
(lp3580
S'table.n.01'
p3581
asS'chromatic_color.n.01'
p3582
(lp3583
S'purple.n.01'
p3584
asS'clock_time.n.01'
p3585
(lp3586
S'hour.n.02'
p3587
asS'body.n.02'
p3588
(lp3589
S'college.n.01'
p3590
aS'colony.n.01'
p3591
asS'body.n.01'
p3592
(lp3593
S'natural_object.n.01'
p3594
asS'worthlessness.n.01'
p3595
(lp3596
S'damn.n.01'
p3597
asS'parturition.n.01'
p3598
(lp3599
S'laying.n.01'
p3600
asS'liquid.n.03'
p3601
(lp3602
S'water.n.01'
p3603
asS'list.n.01'
p3604
(lp3605
S'contents.n.01'
p3606
asS'design.n.04'
p3607
(lp3608
S'emblem.n.01'
p3609
asS'pyrimidine.n.01'
p3610
(lp3611
S'thymine.n.01'
p3612
asS'manservant.n.01'
p3613
(lp3614
sS'wheeled_vehicle.n.01'
p3615
(lp3616
S'wagon.n.01'
p3617
asS'skin.n.01'
p3618
(lp3619
S'body_covering.n.01'
p3620
aS'connective_tissue.n.01'
p3621
asS'word.n.01'
p3622
(lp3623
S'terminology.n.01'
p3624
asS'walk.v.01'
p3625
(lp3626
S'stomp.v.01'
p3627
aS'travel.v.01'
p3628
asS'experience.v.01'
p3629
(lp3630
S'know.v.05'
p3631
asS'experience.v.03'
p3632
(lp3633
S'undergo.v.01'
p3634
asS'spiritual_being.n.01'
p3635
(lp3636
S'spirit.n.04'
p3637
asS'read.v.08'
p3638
(lp3639
S'indicate.v.03'
p3640
asS'kick.n.01'
p3641
(lp3642
S'blow.n.01'
p3643
asS'tree.n.01'
p3644
(lp3645
S'woody_plant.n.01'
p3646
asS'fireplace.n.01'
p3647
(lp3648
S'recess.n.04'
p3649
asS'equine.n.01'
p3650
(lp3651
sS'lover.n.03'
p3652
(lp3653
S'mistress.n.01'
p3654
asS'clearing.n.01'
p3655
(lp3656
S'tract.n.01'
p3657
asS'drug_of_abuse.n.01'
p3658
(lp3659
S'alcohol.n.01'
p3660
aS'soft_drug.n.01'
p3661
asS'cutter.n.06'
p3662
(lp3663
S'edge_tool.n.01'
p3664
asS'container.n.01'
p3665
(lp3666
S'wheeled_vehicle.n.01'
p3667
aS'vessel.n.03'
p3668
asS'leaf.n.01'
p3669
(lp3670
S'plant_organ.n.01'
p3671
asS'course.n.08'
p3672
(lp3673
S'layer.n.01'
p3674
asS'enclosure.n.01'
p3675
(lp3676
S'recess.n.04'
p3677
asS'subside.v.01'
p3678
(lp3679
S'weaken.v.02'
p3680
asS'crack.n.09'
p3681
(lp3682
S'attempt.n.01'
p3683
asS'volition.n.01'
p3684
(lp3685
S'faculty.n.01'
p3686
asS'blood_sport.n.01'
p3687
(lp3688
S'hunt.n.08'
p3689
asS'business.n.05'
p3690
(lp3691
S'occasions.n.01'
p3692
asS'bridge.n.01'
p3693
(lp3694
S'drawbridge.n.01'
p3695
asS'abstraction.n.01'
p3696
(lp3697
S'right.n.01'
p3698
asS'know.n.01'
p3699
(lp3700
S'knowing.n.01'
p3701
asS'investigation.n.02'
p3702
(lp3703
sS'abstraction.n.06'
p3704
(lp3705
S'measure.n.02'
p3706
aS'psychological_feature.n.01'
p3707
aS'attribute.n.02'
p3708
aS'communication.n.02'
p3709
aS'relation.n.01'
p3710
aS'group.n.01'
p3711
asS'noise.n.01'
p3712
(lp3713
S'rumble.n.01'
p3714
asS'perch.n.02'
p3715
(lp3716
S'linear_unit.n.01'
p3717
asS'political_unit.n.01'
p3718
(lp3719
S'state.n.04'
p3720
asS'barrier.n.01'
p3721
(lp3722
S'fence.n.01'
p3723
asS'organization.n.01'
p3724
(lp3725
S'grey.n.04'
p3726
aS'unit.n.03'
p3727
asS'animal_skin.n.01'
p3728
(lp3729
S'leather.n.01'
p3730
asS'nibble.v.03'
p3731
(lp3732
S'eat.v.01'
p3733
asS'category.n.02'
p3734
(lp3735
S'kind.n.01'
p3736
asS'hyperpigmentation.n.01'
p3737
(lp3738
S'tan.n.01'
p3739
asS'hanker.v.01'
p3740
(lp3741
S'desire.v.01'
p3742
asS'special.n.01'
p3743
(lp3744
S'offer.n.02'
p3745
asS'possession.n.02'
p3746
(lp3747
S'transferred_property.n.01'
p3748
aS'property.n.01'
p3749
aS'assets.n.01'
p3750
asS'sacking.n.01'
p3751
(lp3752
S'fabric.n.01'
p3753
asS'set.n.01'
p3754
(lp3755
S'dentition.n.02'
p3756
asS'precipitation.n.03'
p3757
(lp3758
S'rain.n.01'
p3759
asS'pant.n.01'
p3760
(lp3761
S'noise.n.01'
p3762
asS'plant_organ.n.01'
p3763
(lp3764
S'leaf.n.01'
p3765
asS'end.n.02'
p3766
(lp3767
S'stopping_point.n.01'
p3768
asS'murderer.n.01'
p3769
(lp3770
S'assassin.n.01'
p3771
asS'holmium.n.01'
p3772
(lp3773
S'metallic_element.n.01'
p3774
asS'disorderliness.n.01'
p3775
(lp3776
S'clutter.n.01'
p3777
asS'girl.n.01'
p3778
(lp3779
sS'brass_knucks.n.01'
p3780
(lp3781
S'weapon.n.01'
p3782
asS'express.v.02'
p3783
(lp3784
S'state.v.01'
p3785
asS'world_organization.n.01'
p3786
(lp3787
S'united_nations.n.01'
p3788
asS'saturday.n.01'
p3789
(lp3790
S'weekday.n.01'
p3791
asS'travel_rapidly.v.01'
p3792
(lp3793
S'run.v.01'
p3794
asS'labor.v.02'
p3795
(lp3796
S'work.v.02'
p3797
asS'life.n.01'
p3798
(lp3799
S'being.n.01'
p3800
asS'lay.v.02'
p3801
(lp3802
S'put.v.01'
p3803
asS'direction.n.02'
p3804
(lp3805
S'orientation.n.03'
p3806
aS'compass_point.n.01'
p3807
asS'vertebrate_foot.n.01'
p3808
(lp3809
S'foot.n.01'
p3810
aS'animal_foot.n.01'
p3811
asS'saddle.n.01'
p3812
(lp3813
S'seat.n.04'
p3814
asS'articulator.n.02'
p3815
(lp3816
S'tongue.n.01'
p3817
asS'judgment.n.01'
p3818
(lp3819
S'opinion.n.01'
p3820
asS'hearts.n.01'
p3821
(lp3822
S'whist.n.01'
p3823
asS'bird.n.01'
p3824
(lp3825
S'bird_of_prey.n.01'
p3826
asS'comment.v.01'
p3827
(lp3828
S'knock.v.06'
p3829
asS'animal_material.n.01'
p3830
(lp3831
S'feather.n.01'
p3832
aS'animal_product.n.01'
p3833
asS'prestige.n.01'
p3834
(lp3835
S'standing.n.01'
p3836
asS'resource.n.01'
p3837
(lp3838
S'support.n.06'
p3839
asS'priest.n.01'
p3840
(lp3841
S'holy_order.n.01'
p3842
aS'clergyman.n.01'
p3843
asS'handkerchief.n.01'
p3844
(lp3845
S'piece_of_cloth.n.01'
p3846
asS'method.n.01'
p3847
(lp3848
S'system.n.04'
p3849
asS'turf.n.01'
p3850
(lp3851
S'land.n.02'
p3852
asS'scurry.v.01'
p3853
(lp3854
S'run.v.01'
p3855
asS'transaction.n.01'
p3856
(lp3857
S'operations.n.01'
p3858
aS'commerce.n.01'
p3859
asS'ingredient.n.03'
p3860
(lp3861
S'flavorer.n.01'
p3862
asS'name.v.01'
p3863
(lp3864
S'label.v.01'
p3865
asS'respiratory_disease.n.01'
p3866
(lp3867
S'cold.n.01'
p3868
asS'wattle.n.01'
p3869
(lp3870
S'caruncle.n.01'
p3871
asS'subject.n.01'
p3872
(lp3873
S'question.n.02'
p3874
asS'monday.n.01'
p3875
(lp3876
S'weekday.n.01'
p3877
asS'outdoor_sport.n.01'
p3878
(lp3879
S'hunt.n.08'
p3880
asS'amorphous_shape.n.01'
p3881
(lp3882
S'space.n.02'
p3883
asS'serf.n.01'
p3884
(lp3885
S'thrall.n.02'
p3886
asS'house.n.01'
p3887
(lp3888
S'mansion.n.02'
p3889
asS'bad_person.n.01'
p3890
(lp3891
S'libertine.n.01'
p3892
aS'wrongdoer.n.01'
p3893
asS'knock.v.06'
p3894
(lp3895
S'call_on_the_carpet.v.01'
p3896
asS'weaken.v.02'
p3897
(lp3898
S'subside.v.01'
p3899
asS'state.v.01'
p3900
(lp3901
S'note.v.01'
p3902
aS'declare.v.01'
p3903
asS'fundamental_quantity.n.01'
p3904
(lp3905
S'time_period.n.01'
p3906
asS'imperfection.n.01'
p3907
(lp3908
S'failing.n.01'
p3909
asS'employee.n.01'
p3910
(lp3911
S'workman.n.01'
p3912
asS'sense_organ.n.01'
p3913
(lp3914
sS'proposal.n.01'
p3915
(lp3916
S'advice.n.01'
p3917
asS'angiosperm.n.01'
p3918
(lp3919
S'flower.n.01'
p3920
asS'windows.n.01'
p3921
(lp3922
S'operating_system.n.01'
p3923
asS'group.n.01'
p3924
(lp3925
S'people.n.01'
p3926
aS'halogen.n.01'
p3927
aS'collection.n.01'
p3928
asS'cope.v.01'
p3929
(lp3930
S'hack.v.02'
p3931
asS'bestir.v.01'
p3932
(lp3933
S'be_active.v.01'
p3934
asS'attempt.n.01'
p3935
(lp3936
S'crack.n.09'
p3937
asS'maestro.n.01'
p3938
(lp3939
S'artist.n.01'
p3940
asS'pique.n.02'
p3941
(lp3942
S'annoyance.n.02'
p3943
asS'valet.n.01'
p3944
(lp3945
S'body_servant.n.01'
p3946
aS'manservant.n.01'
p3947
asS'alcohol.n.01'
p3948
(lp3949
S'wine.n.01'
p3950
asS'shout.v.02'
p3951
(lp3952
S'utter.v.02'
p3953
asS'thoroughfare.n.01'
p3954
(lp3955
S'street.n.01'
p3956
asS'complain.v.01'
p3957
(lp3958
S'grouch.v.01'
p3959
asS'mouth.n.01'
p3960
(lp3961
S'rima.n.01'
p3962
asS'message.n.02'
p3963
(lp3964
S'approval.n.04'
p3965
aS'nonsense.n.01'
p3966
aS'disapproval.n.02'
p3967
aS'proposal.n.01'
p3968
aS'information.n.01'
p3969
aS'offer.n.02'
p3970
aS'statement.n.01'
p3971
aS'direction.n.06'
p3972
aS'wit.n.01'
p3973
aS'subject.n.01'
p3974
asS'spermatophyte.n.01'
p3975
(lp3976
S'angiosperm.n.01'
p3977
asS'commerce.n.01'
p3978
(lp3979
S'selling.n.01'
p3980
asS'speech_act.n.01'
p3981
(lp3982
S'challenge.n.02'
p3983
aS'denial.n.01'
p3984
asS'child.n.01'
p3985
(lp3986
S'juvenile.n.01'
p3987
asS'assortment.n.01'
p3988
(lp3989
S'odds_and_ends.n.01'
p3990
asS'look.v.01'
p3991
(lp3992
S'stare.v.02'
p3993
asS'look.v.02'
p3994
(lp3995
S'be.v.01'
p3996
asS'bread.n.01'
p3997
(lp3998
S'baked_goods.n.01'
p3999
aS'starches.n.01'
p4000
asS'passage.n.07'
p4001
(lp4002
S'orifice.n.01'
p4003
asS'content.n.05'
p4004
(lp4005
S'idea.n.01'
p4006
aS'goal.n.01'
p4007
aS'belief.n.01'
p4008
aS'knowledge_domain.n.01'
p4009
asS'order.n.03'
p4010
(lp4011
S'peace.n.01'
p4012
asS'crowding.n.01'
p4013
(lp4014
S'situation.n.01'
p4015
asS'thigh.n.01'
p4016
(lp4017
S'limb.n.01'
p4018
asS'body_servant.n.01'
p4019
(lp4020
sS'time_period.n.01'
p4021
(lp4022
S'week.n.01'
p4023
asS'written_communication.n.01'
p4024
(lp4025
S'writing.n.02'
p4026
aS'writing.n.04'
p4027
asS'voice.n.01'
p4028
(lp4029
S'sound.n.01'
p4030
asS'nautical_mile.n.02'
p4031
(lp4032
S'nautical_linear_unit.n.01'
p4033
asS'bird_of_prey.n.01'
p4034
(lp4035
S'hawk.n.01'
p4036
asS'hide.v.01'
p4037
(lp4038
S'bury.v.01'
p4039
asS'advertiser.n.01'
p4040
(lp4041
S'publicist.n.01'
p4042
asS'medical_building.n.01'
p4043
(lp4044
S'hospital.n.01'
p4045
asS'sit.v.01'
p4046
(lp4047
sS'courtesy.n.03'
p4048
(lp4049
S'chivalry.n.01'
p4050
asS'edge_tool.n.01'
p4051
(lp4052
S'scythe.n.01'
p4053
asS'pass.n.09'
p4054
(lp4055
S'juncture.n.01'
p4056
asS'road.n.01'
p4057
(lp4058
S'thoroughfare.n.01'
p4059
aS'highway.n.01'
p4060
asS'apparel.n.01'
p4061
(lp4062
S'clothing.n.01'
p4063
asS'associate.v.01'
p4064
(lp4065
S'think_of.v.04'
p4066
asS'lap.v.03'
p4067
(lp4068
S'sound.v.02'
p4069
asS'hundred.n.01'
p4070
(lp4071
S'large_integer.n.01'
p4072
asS'transferred_property.n.01'
p4073
(lp4074
S'outgo.n.01'
p4075
asS'repeat.v.04'
p4076
(lp4077
S'recite.v.02'
p4078
asS'artist.n.01'
p4079
(lp4080
sS'wire.n.01'
p4081
(lp4082
S'ligament.n.02'
p4083
asS'appellation.n.01'
p4084
(lp4085
S'nickname.n.01'
p4086
asS'plant_material.n.01'
p4087
(lp4088
S'wood.n.01'
p4089
asS'understand.v.03'
p4090
(lp4091
S'understand.v.01'
p4092
asS'college.n.01'
p4093
(lp4094
S'body.n.02'
p4095
asS'utter.v.02'
p4096
(lp4097
S'shout.v.02'
p4098
asS'baked_goods.n.01'
p4099
(lp4100
S'bread.n.01'
p4101
asS'instrument.n.01'
p4102
(lp4103
S'weapon.n.01'
p4104
aS'measuring_instrument.n.01'
p4105
aS'device.n.01'
p4106
asS'capture.v.06'
p4107
(lp4108
S'hunt.v.01'
p4109
asS'light.n.01'
p4110
(lp4111
sS'mistake.n.01'
p4112
(lp4113
S'nonaccomplishment.n.01'
p4114
asS'skill.n.01'
p4115
(lp4116
S'horsemanship.n.01'
p4117
asS'name.n.01'
p4118
(lp4119
S'appellation.n.01'
p4120
asS'form.v.07'
p4121
(lp4122
sS'right.n.01'
p4123
(lp4124
S'abstraction.n.01'
p4125
asS'database.n.01'
p4126
(lp4127
S'list.n.01'
p4128
asS'simpleton.n.01'
p4129
(lp4130
S'stupid.n.01'
p4131
asS'boodle.n.01'
p4132
(lp4133
S'money.n.01'
p4134
asS'person.n.01'
p4135
(lp4136
S'modern.n.01'
p4137
aS'simpleton.n.01'
p4138
aS'male.n.02'
p4139
aS'follower.n.01'
p4140
aS'deaf_person.n.01'
p4141
aS'slave.n.01'
p4142
aS'juvenile.n.01'
p4143
aS'communicator.n.01'
p4144
aS'commoner.n.01'
p4145
aS'religious_person.n.01'
p4146
aS'peer.n.01'
p4147
asS'know-how.n.01'
p4148
(lp4149
S'method.n.01'
p4150
asS'grow.v.07'
p4151
(lp4152
S'cultivate.v.01'
p4153
asS'conveyance.n.03'
p4154
(lp4155
S'vehicle.n.01'
p4156
asS'manage.v.02'
p4157
(lp4158
S'direct.v.04'
p4159
asS'military_action.n.01'
p4160
(lp4161
sS'jacket.n.01'
p4162
(lp4163
S'jerkin.n.01'
p4164
asS'military_unit.n.01'
p4165
(lp4166
S'armor.n.02'
p4167
asS'hydrogen.n.01'
p4168
(lp4169
S'chemical_element.n.01'
p4170
aS'gas.n.02'
p4171
asS'elite.n.01'
p4172
(lp4173
S'few.n.01'
p4174
asS'cartwheel.n.01'
p4175
(lp4176
S'wheel.n.01'
p4177
asS'excavation.n.03'
p4178
(lp4179
S'mine.n.01'
p4180
asS'exhaust.v.05'
p4181
(lp4182
S'excrete.v.01'
p4183
asS'wrongdoer.n.01'
p4184
(lp4185
S'principal.n.05'
p4186
aS'attacker.n.01'
p4187
asS'habit.n.02'
p4188
(lp4189
S'custom.n.01'
p4190
asS'relative.n.01'
p4191
(lp4192
S'offspring.n.01'
p4193
asS'startle.v.02'
p4194
(lp4195
S'move.v.03'
p4196
asS'animal.n.01'
p4197
(lp4198
S'organism.n.01'
p4199
asS'cleanse.v.01'
p4200
(lp4201
S'bathe.v.01'
p4202
asS'signaling_device.n.01'
p4203
(lp4204
S'bell.n.01'
p4205
asS'measure.v.04'
p4206
(lp4207
S'praise.v.01'
p4208
asS'relative_quantity.n.01'
p4209
(lp4210
S'enough.n.01'
p4211
asS'ginger.n.01'
p4212
(lp4213
S'herb.n.01'
p4214
asS'alliance.n.03'
p4215
(lp4216
S'world_organization.n.01'
p4217
asS'motivation.n.01'
p4218
(lp4219
S'rational_motive.n.01'
p4220
asS'stopping_point.n.01'
p4221
(lp4222
S'end.n.02'
p4223
asS'excel.v.01'
p4224
(lp4225
sS'spur.n.04'
p4226
(lp4227
S'prod.n.02'
p4228
asS'liquid.n.01'
p4229
(lp4230
S'beverage.n.01'
p4231
asS'forward_pass.n.01'
p4232
(lp4233
S'pass.n.03'
p4234
asS'discipline.n.01'
p4235
(lp4236
S'engineering.n.02'
p4237
asS'wednesday.n.01'
p4238
(lp4239
S'weekday.n.01'
p4240
asS'shame.n.01'
p4241
(lp4242
S'feeling.n.01'
p4243
asS'shadow.v.02'
p4244
(lp4245
S'darken.v.03'
p4246
as.