(dp1
S'surface.n.02'
p2
I1
sS'living_thing.n.01'
p3
I2
sS'statement.n.01'
p4
I2
sS'garden_tool.n.01'
p5
I2
sS'change_magnitude.v.01'
p6
I2
sS'smack.v.01'
p7
I1
sS'fact.n.01'
p8
I1
sS'travel.v.01'
p9
I4
sS'thunderbolt.n.01'
p10
I1
sS'travel.v.03'
p11
I2
sS'travel.v.02'
p12
I2
sS'decide.v.01'
p13
I2
sS'thing.n.12'
p14
I6
sS'thrall.n.02'
p15
I2
sS'friday.n.01'
p16
I1
sS'communication.n.02'
p17
I12
sS'immorality.n.01'
p18
I2
sS'connect.v.01'
p19
I4
sS'attack.n.07'
p20
I2
sS'gallop.v.01'
p21
I1
sS'peregrine.n.01'
p22
I1
sS'bell.n.01'
p23
I2
sS'hand.n.06'
p24
I1
sS'practice.n.01'
p25
I2
sS'advice.n.01'
p26
I1
sS'location.n.01'
p27
I3
sS'plodding.n.02'
p28
I1
sS'screening.n.01'
p29
I1
sS'tissue.n.01'
p30
I1
sS'parlor_game.n.01'
p31
I2
sS'entity.n.01'
p32
I4
sS'praise.v.01'
p33
I2
sS'rational_number.n.01'
p34
I2
sS'coupling.n.02'
p35
I1
sS'throw.v.01'
p36
I2
sS'male_offspring.n.01'
p37
I1
sS'confine.v.05'
p38
I2
sS'scythe.n.01'
p39
I1
sS'a.n.06'
p40
I1
sS'laying.n.01'
p41
I1
sS'field_day.n.04'
p42
I1
sS'purple.n.01'
p43
I1
sS'falsification.n.02'
p44
I2
sS'plant.n.02'
p45
I2
sS'inside.n.01'
p46
I1
sS'sound.n.01'
p47
I2
sS'cattle.n.01'
p48
I1
sS'attitude.n.01'
p49
I2
sS'case.n.01'
p50
I2
sS'clutter.n.01'
p51
I1
sS'commoner.n.01'
p52
I2
sS'fodder.n.02'
p53
I1
sS'disapprove.v.02'
p54
I2
sS'bring.v.04'
p55
I1
sS'matter.n.01'
p56
I2
sS'action.n.01'
p57
I6
sS'matter.n.03'
p58
I8
sS'undo.v.01'
p59
I1
sS'opinion.n.01'
p60
I1
sS'disease.n.01'
p61
I3
sS'stove.n.01'
p62
I2
sS'elapse.v.01'
p63
I1
sS'accessory.n.01'
p64
I2
sS'phenomenon.n.01'
p65
I2
sS'sound_property.n.01'
p66
I2
sS'land.n.02'
p67
I2
sS'annoyance.n.02'
p68
I2
sS'land.n.04'
p69
I1
sS'gregorian_calendar_month.n.01'
p70
I2
sS'water.n.01'
p71
I2
sS'italic.n.02'
p72
I2
sS'flick.v.02'
p73
I1
sS'battle.n.01'
p74
I1
sS'red.n.01'
p75
I1
sS'high_status.n.01'
p76
I2
sS'vomit.v.01'
p77
I1
sS'academic_degree.n.01'
p78
I2
sS'rattle.n.01'
p79
I1
sS'least.n.01'
p80
I1
sS'front.v.01'
p81
I1
sS'body_substance.n.01'
p82
I2
sS'periodic_event.n.01'
p83
I2
sS'eatage.n.01'
p84
I1
sS'desire.v.01'
p85
I1
sS'disapproval.n.02'
p86
I2
sS'slave.n.01'
p87
I2
sS'smell.v.01'
p88
I1
sS'left.n.01'
p89
I1
sS'mineral.n.01'
p90
I2
sS'upper_class.n.01'
p91
I2
sS'chill.n.03'
p92
I1
sS'necessity.n.02'
p93
I2
sS'terminology.n.01'
p94
I1
sS'drawbridge.n.01'
p95
I1
sS'circulate.v.02'
p96
I1
sS'river.n.01'
p97
I1
sS'psychological_feature.n.01'
p98
I6
sS'abdomen.n.01'
p99
I1
sS'hysterics.n.01'
p100
I1
sS'acre.n.01'
p101
I1
sS'united_nations.n.01'
p102
I1
sS'about-face.n.02'
p103
I2
sS'fly.v.08'
p104
I1
sS'physical_phenomenon.n.01'
p105
I4
sS'get.v.19'
p106
I1
sS'denial.n.01'
p107
I2
sS'hurling.n.01'
p108
I1
sS'lie.v.01'
p109
I2
sS'playing.n.02'
p110
I2
sS'drink.v.01'
p111
I1
sS'living_quarters.n.01'
p112
I2
sS'crossing.n.01'
p113
I1
sS'solid.n.03'
p114
I2
sS'stand.v.01'
p115
I1
sS'hunt.n.08'
p116
I2
sS'ditch.n.01'
p117
I2
sS'day.n.04'
p118
I1
sS'instrumentality.n.03'
p119
I14
sS'natural_language.n.01'
p120
I2
sS'calendar_day.n.01'
p121
I2
sS'cooking_utensil.n.01'
p122
I2
sS'person_of_color.n.01'
p123
I2
sS'harbor.v.01'
p124
I1
sS'dark.n.01'
p125
I3
sS'overgarment.n.01'
p126
I2
sS'advertise.v.01'
p127
I1
sS'operating_expense.n.01'
p128
I1
sS'belief.n.01'
p129
I4
sS'advertise.v.02'
p130
I2
sS'region.n.01'
p131
I2
sS'knowledge_domain.n.01'
p132
I2
sS'region.n.03'
p133
I2
sS'examine.v.02'
p134
I2
sS'rebuke.n.01'
p135
I2
sS'horny_structure.n.01'
p136
I2
sS'indian.n.01'
p137
I1
sS'cord.n.01'
p138
I1
sS'fling.v.01'
p139
I1
sS'card_game.n.01'
p140
I2
sS'cut.v.01'
p141
I2
sS'continuance.n.01'
p142
I2
sS'foot.n.01'
p143
I1
sS'publication.n.01'
p144
I1
sS'motion.n.03'
p145
I4
sS'process.n.06'
p146
I4
sS'organism.n.01'
p147
I21
sS'keeping.n.01'
p148
I1
sS'motion.n.06'
p149
I8
sS'sitting.n.01'
p150
I1
sS'mow.v.01'
p151
I1
sS'expressway.n.01'
p152
I1
sS'music.n.01'
p153
I1
sS'must.n.01'
p154
I1
sS'vice.n.02'
p155
I2
sS'source_of_illumination.n.01'
p156
I2
sS'nincompoop.n.01'
p157
I1
sS'silver.n.01'
p158
I2
sS'occasions.n.01'
p159
I1
sS'cant.v.01'
p160
I1
sS'male.n.02'
p161
I1
sS'organon.n.01'
p162
I1
sS'section.n.01'
p163
I1
sS'cutlery.n.02'
p164
I2
sS'communicable_disease.n.01'
p165
I2
sS'toss_off.v.02'
p166
I1
sS'libertine.n.01'
p167
I2
sS'contents.n.01'
p168
I2
sS'break.v.42'
p169
I1
sS'past.n.01'
p170
I2
sS'electromagnetic_radiation.n.01'
p171
I2
sS'football_play.n.01'
p172
I2
sS'field_game.n.01'
p173
I2
sS'anger.n.01'
p174
I2
sS'tiercel.n.01'
p175
I1
sS'vertical.n.01'
p176
I1
sS'bathe.v.01'
p177
I1
sS'make.v.03'
p178
I1
sS'latin.n.01'
p179
I1
sS'plan_of_action.n.01'
p180
I2
sS'flavorer.n.01'
p181
I2
sS'time.n.03'
p182
I1
sS'poison.n.01'
p183
I1
sS'pursuit.n.01'
p184
I1
sS'pursuit.n.02'
p185
I1
sS'killer.n.01'
p186
I2
sS'cardamom.n.02'
p187
I1
sS'contend.v.06'
p188
I2
sS'plan.n.01'
p189
I2
sS'travel.n.01'
p190
I2
sS'cutting_implement.n.01'
p191
I2
sS'dart.v.02'
p192
I1
sS'port.n.01'
p193
I1
sS'nostril.n.01'
p194
I1
sS'screen.n.04'
p195
I1
sS'fence.n.01'
p196
I1
sS'maharaja.n.01'
p197
I1
sS'bad.n.01'
p198
I2
sS'emotion.n.01'
p199
I2
sS'indispose.v.03'
p200
I2
sS'whist.n.01'
p201
I2
sS'mammal.n.01'
p202
I2
sS'street.n.01'
p203
I2
sS'decay.v.02'
p204
I2
sS'display.n.05'
p205
I2
sS'theory.n.01'
p206
I1
sS'direction.n.01'
p207
I3
sS'weekday.n.01'
p208
I2
sS'address.n.02'
p209
I2
sS'peck.v.01'
p210
I1
sS'man.n.10'
p211
I2
sS'military_quarters.n.01'
p212
I2
sS'cannabis.n.02'
p213
I2
sS'fruit.n.01'
p214
I2
sS'outdoor_game.n.01'
p215
I2
sS'edge.n.01'
p216
I1
sS'astrolabe.n.01'
p217
I1
sS'lumber.n.01'
p218
I2
sS'knife.n.01'
p219
I1
sS'leader.n.01'
p220
I5
sS'knowing.n.01'
p221
I2
sS'communicate.v.02'
p222
I6
sS'horizontal_surface.n.01'
p223
I2
sS'groom.v.03'
p224
I2
sS'consume.v.02'
p225
I6
sS'pass.n.03'
p226
I2
sS'morning.n.01'
p227
I1
sS'injure.v.01'
p228
I2
sS'convey.v.03'
p229
I2
sS'become.v.03'
p230
I4
sS'direct.v.04'
p231
I1
sS'trench.n.01'
p232
I2
sS'material.n.01'
p233
I16
sS'complex_number.n.01'
p234
I2
sS'bury.v.01'
p235
I1
sS'crick.n.01'
p236
I1
sS'point.n.06'
p237
I3
sS'chivalry.n.01'
p238
I1
sS'there.n.01'
p239
I1
sS'point.n.02'
p240
I6
sS'occupation.n.01'
p241
I2
sS'side.n.04'
p242
I1
sS'son.n.01'
p243
I1
sS'announcement.n.02'
p244
I2
sS'choice.n.02'
p245
I2
sS'writing.n.04'
p246
I2
sS'cipher.n.04'
p247
I1
sS'channel.n.04'
p248
I2
sS'atmosphere.n.05'
p249
I2
sS'mine.n.01'
p250
I1
sS'world_health_organization.n.01'
p251
I1
sS'excrete.v.01'
p252
I2
sS'associate.n.01'
p253
I2
sS'sunset.n.01'
p254
I1
sS'plantation.n.02'
p255
I1
sS'nonaccomplishment.n.01'
p256
I2
sS'interim.n.01'
p257
I1
sS'geographic_point.n.01'
p258
I6
sS'cognition.n.01'
p259
I10
sS'impute.v.01'
p260
I1
sS'state.n.04'
p261
I1
sS'moat.n.01'
p262
I1
sS'encouragement.n.01'
p263
I2
sS'vote.n.01'
p264
I1
sS'metallic_element.n.01'
p265
I2
sS'pot.n.09'
p266
I1
sS'grey.n.04'
p267
I1
sS'one-third.n.01'
p268
I1
sS'letter.n.02'
p269
I1
sS'forest.n.01'
p270
I1
sS'movement.n.04'
p271
I1
sS'queen.n.01'
p272
I1
sS'peruse.v.01'
p273
I2
sS'designate.v.01'
p274
I2
sS'vegetation.n.01'
p275
I2
sS'falconry.n.01'
p276
I1
sS'rake.n.01'
p277
I1
sS'contractile_organ.n.01'
p278
I2
sS'pseudoscience.n.01'
p279
I2
sS'refuse.v.01'
p280
I1
sS'express_emotion.v.01'
p281
I2
sS'leave.v.01'
p282
I2
sS'offer.n.02'
p283
I2
sS'food.n.02'
p284
I5
sS'food.n.01'
p285
I6
sS'armor.n.02'
p286
I1
sS'dizziness.n.01'
p287
I1
sS'culture.n.02'
p288
I2
sS'fallacy.n.01'
p289
I2
sS'situation.n.01'
p290
I2
sS'bovine.n.01'
p291
I1
sS'structure.n.04'
p292
I4
sS'good.n.03'
p293
I1
sS'operating_system.n.01'
p294
I2
sS'structure.n.01'
p295
I2
sS'sunlight.n.01'
p296
I1
sS'supply.v.01'
p297
I2
sS'night.n.01'
p298
I1
sS'work.n.02'
p299
I2
sS'request.v.02'
p300
I1
sS'arthropod.n.01'
p301
I2
sS'substance.n.01'
p302
I19
sS'substance.n.07'
p303
I6
sS'cultivate.v.01'
p304
I1
sS'happening.n.01'
p305
I7
sS'pretense.n.01'
p306
I2
sS'joke.n.01'
p307
I1
sS'protective_covering.n.01'
p308
I1
sS'position.n.01'
p309
I2
sS'collection.n.01'
p310
I2
sS'brush.n.01'
p311
I1
sS'female.n.02'
p312
I5
sS'hackle.n.01'
p313
I1
sS'bunch.n.03'
p314
I1
sS'reading.n.03'
p315
I2
sS'darken.v.03'
p316
I2
sS'play.n.14'
p317
I2
sS'scramble.v.03'
p318
I1
sS'measure.n.01'
p319
I1
sS'act.n.02'
p320
I16
sS'run.v.01'
p321
I2
sS'event.n.01'
p322
I6
sS'narrow.n.01'
p323
I1
sS'atmospheric_electricity.n.01'
p324
I2
sS'movable_barrier.n.01'
p325
I1
sS'orifice.n.01'
p326
I4
sS'organ.n.01'
p327
I3
sS'passion.n.01'
p328
I1
sS'position.n.07'
p329
I4
sS'basic_cognitive_process.n.01'
p330
I4
sS'rate.v.01'
p331
I1
sS'lane.n.01'
p332
I1
sS'mute.n.01'
p333
I1
sS'line.n.11'
p334
I2
sS'health_professional.n.01'
p335
I2
sS'home.n.01'
p336
I1
sS'be.v.01'
p337
I1
sS'line.n.18'
p338
I2
sS'be.v.03'
p339
I1
sS'propel.v.01'
p340
I2
sS'declare.v.01'
p341
I2
sS'art.n.01'
p342
I1
sS'surround.v.01'
p343
I2
sS'kennel.n.01'
p344
I2
sS'rabbit.n.01'
p345
I1
sS'falcon.n.01'
p346
I2
sS'bring.v.03'
p347
I1
sS'tune.n.01'
p348
I1
sS'idea.n.01'
p349
I6
sS'consumer_goods.n.01'
p350
I4
sS'cardinal_compass_point.n.01'
p351
I2
sS'foxhunt.v.01'
p352
I1
sS'spiritual_leader.n.01'
p353
I1
sS'tract.n.01'
p354
I1
sS'tickle.n.02'
p355
I1
sS'ride_horseback.v.01'
p356
I2
sS'hurt.v.02'
p357
I2
sS'shelter.n.02'
p358
I3
sS'concentrate.v.02'
p359
I2
sS'leisure.n.01'
p360
I2
sS'ability.n.02'
p361
I8
sS'thinking.n.01'
p362
I2
sS'symbol.n.01'
p363
I4
sS'rumble.n.01'
p364
I1
sS'appearance.n.06'
p365
I1
sS'bond_servant.n.01'
p366
I2
sS'magnitude.n.01'
p367
I2
sS'external_body_part.n.01'
p368
I4
sS'semen.n.01'
p369
I1
sS'projection.n.05'
p370
I2
sS'lift.v.02'
p371
I2
sS'horseplay.n.01'
p372
I1
sS'deaf_person.n.01'
p373
I2
sS'associate_in_nursing.n.01'
p374
I1
sS'order.v.01'
p375
I1
sS'pant.v.01'
p376
I1
sS'workman.n.01'
p377
I2
sS'support.n.10'
p378
I3
sS'repeat.n.01'
p379
I1
sS'come.v.05'
p380
I1
sS'game_equipment.n.01'
p381
I2
sS'receive.v.02'
p382
I1
sS'path.n.03'
p383
I1
sS'steep.v.01'
p384
I1
sS'irritate.v.02'
p385
I1
sS'day.n.01'
p386
I1
sS'morality.n.01'
p387
I1
sS'manner.n.02'
p388
I2
sS'taste.n.03'
p389
I2
sS'exhale.v.01'
p390
I2
sS'direction.n.06'
p391
I2
sS'strip.n.05'
p392
I2
sS'obstruction.n.01'
p393
I2
sS'associate_degree.n.01'
p394
I2
sS'joke.v.01'
p395
I1
sS'degree.n.01'
p396
I2
sS'abhor.v.01'
p397
I1
sS'hero.n.01'
p398
I1
sS'move.n.01'
p399
I2
sS'affliction.n.03'
p400
I2
sS'request.v.01'
p401
I2
sS'common_fraction.n.01'
p402
I1
sS'mistress.n.01'
p403
I2
sS'work.n.01'
p404
I2
sS'information.n.01'
p405
I3
sS'information.n.02'
p406
I4
sS'animal_product.n.01'
p407
I2
sS'damn.n.01'
p408
I1
sS'home_appliance.n.01'
p409
I2
sS'locomotion.n.02'
p410
I2
sS'glass.n.01'
p411
I1
sS'hash_out.v.01'
p412
I2
sS'cost.n.01'
p413
I4
sS'day_of_the_week.n.01'
p414
I2
sS'hay.n.01'
p415
I1
sS'blame.n.02'
p416
I1
sS'fear.v.01'
p417
I1
sS'laborer.n.01'
p418
I2
sS'principal.n.05'
p419
I2
sS'do.v.04'
p420
I1
sS'whole.n.02'
p421
I5
sS'breathe.v.01'
p422
I2
sS'need.n.02'
p423
I1
sS'friend.n.01'
p424
I1
sS'good.n.02'
p425
I1
sS'checkers.n.01'
p426
I1
sS'criminal.n.01'
p427
I2
sS'approval.n.04'
p428
I2
sS'rima.n.01'
p429
I2
sS'inclination.n.01'
p430
I2
sS'hood.n.01'
p431
I1
sS'confront.v.01'
p432
I1
sS'change_by_reversal.v.01'
p433
I2
sS'explanation.n.02'
p434
I2
sS'binary_compound.n.01'
p435
I3
sS'goblin.n.01'
p436
I1
sS'depart.v.03'
p437
I1
sS'standing.n.01'
p438
I2
sS'gas.n.02'
p439
I3
sS'durables.n.01'
p440
I2
sS'rub.v.03'
p441
I1
sS'vacation.n.01'
p442
I2
sS'eat.v.01'
p443
I2
sS'lunatic.n.01'
p444
I1
sS'rush.v.01'
p445
I3
sS'measuring_instrument.n.01'
p446
I2
sS'grain.n.02'
p447
I2
sS'nip.v.03'
p448
I1
sS'base.n.10'
p449
I2
sS'surface.n.01'
p450
I2
sS'creator.n.02'
p451
I2
sS'ninety.n.01'
p452
I1
sS'superior_skill.n.01'
p453
I2
sS'teach.v.01'
p454
I1
sS'carry.v.15'
p455
I1
sS'illumination.n.02'
p456
I2
sS'support.n.06'
p457
I1
sS'etiquette.n.01'
p458
I1
sS'game.n.01'
p459
I6
sS'know.v.05'
p460
I1
sS'cage.v.01'
p461
I1
sS'program.n.05'
p462
I1
sS'covering.n.02'
p463
I5
sS'challenge.n.02'
p464
I2
sS'leather.n.01'
p465
I1
sS'covering.n.01'
p466
I1
sS'disagreement.n.03'
p467
I2
sS'give.v.03'
p468
I2
sS'acoustic_device.n.01'
p469
I3
sS'decoration.n.01'
p470
I4
sS'clean.v.07'
p471
I1
sS'bearing.n.02'
p472
I2
sS'language_unit.n.01'
p473
I4
sS'area_unit.n.01'
p474
I2
sS'color.n.01'
p475
I2
sS'buttocks.n.01'
p476
I1
sS'tuesday.n.01'
p477
I1
sS'end.n.06'
p478
I1
sS'kind.n.01'
p479
I1
sS'count.n.02'
p480
I1
sS'operations.n.01'
p481
I1
sS'think_of.v.04'
p482
I1
sS'appliance.n.02'
p483
I2
sS'unit_of_measurement.n.01'
p484
I4
sS'absorb.v.01'
p485
I1
sS'stomp.v.01'
p486
I1
sS'definite_quantity.n.01'
p487
I4
sS'communicate.v.01'
p488
I2
sS'cubby.n.01'
p489
I1
sS'milk.v.01'
p490
I1
sS'halogen.n.01'
p491
I1
sS'attach.v.01'
p492
I2
sS'buzzword.n.01'
p493
I1
sS'sword.n.01'
p494
I1
sS'wagon.n.01'
p495
I1
sS'vertebrate.n.01'
p496
I4
sS'implement.n.01'
p497
I4
sS'shape.n.02'
p498
I2
sS'problem.n.01'
p499
I1
sS'ungulate.n.01'
p500
I4
sS'run.v.03'
p501
I1
sS'yard.n.01'
p502
I1
sS'fancify.v.01'
p503
I2
sS'bend.v.01'
p504
I2
sS'hair.n.01'
p505
I1
sS'subject.v.01'
p506
I1
sS'hospital.n.01'
p507
I1
sS'clergyman.n.01'
p508
I3
sS'bones.n.01'
p509
I1
sS'indicate.v.03'
p510
I2
sS'utensil.n.01'
p511
I2
sS'evidence.n.01'
p512
I2
sS'topographic_point.n.01'
p513
I1
sS'teacher.n.01'
p514
I2
sS'concept.n.01'
p515
I6
sS'dislike.v.01'
p516
I2
sS'physical_condition.n.01'
p517
I4
sS'lagomorph.n.01'
p518
I2
sS'failure.n.01'
p519
I1
sS'reason.v.03'
p520
I2
sS'domestic_partner.n.01'
p521
I1
sS'demeanor.n.01'
p522
I2
sS'flower.n.01'
p523
I2
sS'rodent.n.01'
p524
I2
sS'worker.n.01'
p525
I4
sS'have.v.02'
p526
I2
sS'change.n.01'
p527
I2
sS'prod.n.02'
p528
I2
sS'change.n.03'
p529
I6
sS'catching.n.01'
p530
I1
sS'touch.n.05'
p531
I2
sS'physical_entity.n.01'
p532
I10
sS'controlled_substance.n.01'
p533
I2
sS'bottle.n.01'
p534
I1
sS'sorb.v.01'
p535
I2
sS'narcotic.n.01'
p536
I2
sS'aid.n.02'
p537
I1
sS'affect.v.01'
p538
I2
sS'condition.n.01'
p539
I10
sS'affect.v.05'
p540
I2
sS'coding_system.n.01'
p541
I2
sS'odd-toed_ungulate.n.01'
p542
I2
sS'arrangement.n.02'
p543
I2
sS'garment.n.01'
p544
I2
sS'commodity.n.01'
p545
I2
sS'reformer.n.01'
p546
I2
sS'enclose.v.03'
p547
I2
sS'simple.n.01'
p548
I1
sS'wash.v.03'
p549
I1
sS'piece_of_cloth.n.01'
p550
I2
sS'ligament.n.02'
p551
I2
sS'standard.n.01'
p552
I2
sS'primus_stove.n.01'
p553
I1
sS'transfer.v.02'
p554
I2
sS'evening.n.01'
p555
I1
sS'professional.n.01'
p556
I4
sS'transfer.v.05'
p557
I3
sS'speech_organ.n.01'
p558
I1
sS'custom.n.01'
p559
I1
sS'nail.n.01'
p560
I1
sS'administrative_unit.n.01'
p561
I2
sS'juvenile.n.01'
p562
I2
sS'think.v.01'
p563
I2
sS'think.v.03'
p564
I8
sS'dentition.n.02'
p565
I1
sS'nickname.n.01'
p566
I1
sS'leporid.n.01'
p567
I1
sS'mouse.n.01'
p568
I1
sS'system_of_measurement.n.01'
p569
I2
sS'kitchen_utensil.n.01'
p570
I2
sS'stupid.n.01'
p571
I1
sS'choose.v.01'
p572
I1
sS'juncture.n.01'
p573
I1
sS'knight.n.02'
p574
I1
sS'nurse.n.01'
p575
I1
sS'happen.v.01'
p576
I2
sS'evaluate.v.02'
p577
I6
sS'musical_instrument.n.01'
p578
I2
sS'communicator.n.01'
p579
I2
sS'baseball_swing.n.01'
p580
I1
sS'few.n.01'
p581
I1
sS'nut.n.01'
p582
I1
sS'hit.v.03'
p583
I2
sS'compass_point.n.01'
p584
I2
sS'moment.n.02'
p585
I1
sS'colors.n.02'
p586
I1
sS'peak.n.04'
p587
I1
sS'community.n.01'
p588
I2
sS'earth.n.02'
p589
I3
sS'stream.n.01'
p590
I2
sS'convex_shape.n.01'
p591
I2
sS'lure.n.01'
p592
I1
sS'visual_property.n.01'
p593
I2
sS'horizontal.n.01'
p594
I1
sS'body_of_water.n.01'
p595
I4
sS'faculty.n.01'
p596
I2
sS'system.n.04'
p597
I2
sS'creation.n.02'
p598
I2
sS'rest.v.01'
p599
I2
sS'actinic_radiation.n.01'
p600
I2
sS'assemble.v.01'
p601
I2
sS'shrub.n.01'
p602
I1
sS'plume.n.01'
p603
I1
sS'clean.v.01'
p604
I2
sS'cart.n.01'
p605
I1
sS'fly.v.01'
p606
I1
sS'rede.v.02'
p607
I1
sS'horse.n.01'
p608
I1
sS'suppose.v.01'
p609
I1
sS'medium_of_exchange.n.01'
p610
I2
sS'feeling.n.01'
p611
I2
sS'extremity.n.01'
p612
I2
sS'deterioration.n.01'
p613
I2
sS'stigmatize.v.01'
p614
I1
sS'recite.v.02'
p615
I2
sS'real_number.n.01'
p616
I2
sS'court.n.10'
p617
I1
sS'bulge.n.01'
p618
I2
sS'wrongdoing.n.02'
p619
I4
sS'dairy_product.n.01'
p620
I2
sS'cause_to_be_perceived.v.01'
p621
I2
sS'pounce.v.01'
p622
I1
sS'production.n.01'
p623
I2
sS'glower.v.01'
p624
I1
sS'worry.v.01'
p625
I2
sS'join.v.02'
p626
I2
sS'digit.n.01'
p627
I1
sS'tableware.n.01'
p628
I2
sS'attraction.n.03'
p629
I1
sS'weapon.n.01'
p630
I2
sS'building_material.n.01'
p631
I2
sS'quarrel.n.01'
p632
I1
sS'till.n.01'
p633
I1
sS'psychological_state.n.01'
p634
I2
sS'walk.n.01'
p635
I2
sS'cognitive_state.n.01'
p636
I2
sS'transgression.n.01'
p637
I2
sS'village.n.01'
p638
I1
sS'change_state.v.01'
p639
I2
sS'sound.v.02'
p640
I2
sS'piece.n.01'
p641
I2
sS'people.n.01'
p642
I3
sS'talk_of.v.01'
p643
I2
sS'door.n.01'
p644
I1
sS'colony.n.01'
p645
I2
sS'concern.n.01'
p646
I2
sS'react.v.01'
p647
I2
sS'thymine.n.01'
p648
I1
sS'energy.n.01'
p649
I2
sS'scent.v.02'
p650
I1
sS'time_off.n.01'
p651
I2
sS'ware.n.01'
p652
I2
sS'explain.v.01'
p653
I1
sS'rational_motive.n.01'
p654
I2
sS'size.n.01'
p655
I1
sS'thursday.n.01'
p656
I1
sS'reflex.n.01'
p657
I2
sS'board_game.n.01'
p658
I2
sS'undoing.n.01'
p659
I1
sS'molt.n.01'
p660
I1
sS'move.v.13'
p661
I1
sS'attack.v.01'
p662
I1
sS'number.n.02'
p663
I4
sS'see.v.05'
p664
I1
sS'offspring.n.01'
p665
I2
sS'clothing.n.01'
p666
I6
sS'electrical_discharge.n.01'
p667
I2
sS'stroke.n.01'
p668
I1
sS'chemical_element.n.01'
p669
I1
sS'high.n.01'
p670
I1
sS'rule.n.03'
p671
I2
sS'drink.n.02'
p672
I1
sS'art.n.03'
p673
I2
sS'fortification.n.01'
p674
I1
sS'furnishing.n.02'
p675
I2
sS'equipment.n.01'
p676
I2
sS'auditory_communication.n.01'
p677
I2
sS'exceed.v.02'
p678
I1
sS'payment.n.01'
p679
I2
sS'status.n.01'
p680
I6
sS'feed.n.01'
p681
I2
sS'devising.n.01'
p682
I1
sS'precedence.n.01'
p683
I1
sS'wood.n.01'
p684
I2
sS'male_aristocrat.n.01'
p685
I2
sS'penalty.n.02'
p686
I2
sS'be_active.v.01'
p687
I1
sS'palace.n.01'
p688
I1
sS'united_nations_agency.n.01'
p689
I2
sS'tan.n.01'
p690
I1
sS'liquid_body_substance.n.01'
p691
I2
sS'radiation.n.01'
p692
I2
sS'career.n.01'
p693
I1
sS'class.n.03'
p694
I2
sS'plant_part.n.01'
p695
I2
sS'sweat.v.01'
p696
I1
sS'interact.v.01'
p697
I2
sS'front.v.02'
p698
I1
sS'amerindian.n.01'
p699
I1
sS'time.n.05'
p700
I2
sS'fluid.n.02'
p701
I4
sS'time.n.01'
p702
I1
sS'part.n.02'
p703
I2
sS'part.n.03'
p704
I2
sS'injustice.n.02'
p705
I2
sS'part.n.01'
p706
I4
sS'adult.n.01'
p707
I7
sS'wheel.n.01'
p708
I3
sS'part.n.09'
p709
I2
sS'play.n.03'
p710
I2
sS'mention.v.01'
p711
I1
sS'chordate.n.01'
p712
I2
sS'defensive_structure.n.01'
p713
I2
sS'laugh.v.01'
p714
I1
sS'extremity.n.05'
p715
I2
sS'baize.n.01'
p716
I1
sS'two.n.01'
p717
I1
sS'coach.n.02'
p718
I1
sS'extremity.n.04'
p719
I2
sS'measure.n.02'
p720
I14
sS'hoof.n.01'
p721
I1
sS'crouch.v.01'
p722
I1
sS'way.n.06'
p723
I2
sS'tour.v.01'
p724
I1
sS'soil.n.02'
p725
I4
sS'strait.n.01'
p726
I2
sS'organic_process.n.01'
p727
I6
sS'caruncle.n.01'
p728
I2
sS'peace.n.01'
p729
I1
sS'distance.n.03'
p730
I1
sS'conformity.n.02'
p731
I2
sS'flash.n.03'
p732
I1
sS'furnishing.n.01'
p733
I1
sS'boom.n.01'
p734
I1
sS'starches.n.01'
p735
I3
sS'written_symbol.n.01'
p736
I2
sS'noisemaker.n.01'
p737
I2
sS'originate.v.01'
p738
I3
sS'waste.n.01'
p739
I2
sS'educator.n.01'
p740
I2
sS'afternoon.n.01'
p741
I1
sS'astatine.n.01'
p742
I2
sS'geographical_area.n.01'
p743
I2
sS'housing.n.01'
p744
I4
sS'control.v.01'
p745
I2
sS'visit.v.01'
p746
I1
sS'horn.n.01'
p747
I1
sS'foodstuff.n.02'
p748
I7
sS'cheering.n.01'
p749
I1
sS'weather.n.01'
p750
I3
sS'fall.v.21'
p751
I1
sS'dry.n.01'
p752
I1
sS'astrology.n.01'
p753
I1
sS'tool.n.01'
p754
I5
sS'code.n.03'
p755
I2
sS'shooting.n.01'
p756
I1
sS'perch.v.01'
p757
I1
sS'sir.n.02'
p758
I1
sS'wine.n.01'
p759
I1
sS'hawk.n.01'
p760
I2
sS'artifact.n.01'
p761
I28
sS'sick_person.n.01'
p762
I2
sS'shirt.n.01'
p763
I1
sS'herb.n.01'
p764
I2
sS'relation.n.01'
p765
I6
sS'machine.n.04'
p766
I4
sS'fraction.n.03'
p767
I2
sS'kitchen_appliance.n.01'
p768
I2
sS'family.n.01'
p769
I1
sS'crusade.v.01'
p770
I1
sS'season.n.02'
p771
I2
sS'undergo.v.01'
p772
I1
sS'rain.n.01'
p773
I1
sS'product.n.02'
p774
I2
sS'linear_unit.n.01'
p775
I2
sS'vessel.n.03'
p776
I4
sS'quality.n.01'
p777
I2
sS'noble_metal.n.01'
p778
I3
sS'shelf.n.01'
p779
I1
sS'chase.v.01'
p780
I1
sS'property.n.02'
p781
I8
sS'property.n.01'
p782
I2
sS'week.n.01'
p783
I1
sS'aim.n.02'
p784
I2
sS'blow.n.01'
p785
I2
sS'seed.n.01'
p786
I2
sS'integer.n.01'
p787
I4
sS'ill_health.n.01'
p788
I4
sS'social_group.n.01'
p789
I1
sS'unsoundness.n.01'
p790
I2
sS'tap.v.07'
p791
I1
sS'servant.n.01'
p792
I3
sS'twinkle.n.01'
p793
I1
sS'rap.v.01'
p794
I1
sS'spell.v.01'
p795
I1
sS'workshop.n.01'
p796
I1
sS'caldron.n.01'
p797
I1
sS'agent.n.03'
p798
I2
sS'dame.n.01'
p799
I1
sS'scabies.n.01'
p800
I1
sS'startle.n.01'
p801
I1
sS'air.v.03'
p802
I1
sS'hanging.n.01'
p803
I1
sS'attention.n.01'
p804
I1
sS'disturb.v.01'
p805
I1
sS'bent.n.01'
p806
I1
sS'sextant.n.02'
p807
I2
sS'stare.v.02'
p808
I2
sS'bunch.v.02'
p809
I1
sS'assets.n.01'
p810
I2
sS'orientation.n.03'
p811
I2
sS'assistant.n.01'
p812
I1
sS'sawdust.n.01'
p813
I1
sS'sound.n.04'
p814
I2
sS'spirit.n.04'
p815
I2
sS'participant.n.01'
p816
I2
sS'rake.v.01'
p817
I1
sS'stevedore.n.01'
p818
I1
sS'carry.v.02'
p819
I1
sS'large_integer.n.01'
p820
I1
sS'animal_foot.n.01'
p821
I2
sS'feel.v.01'
p822
I2
sS'religious_person.n.01'
p823
I2
sS'misconception.n.01'
p824
I2
sS'enough.n.01'
p825
I1
sS'residence.n.01'
p826
I2
sS'woody_plant.n.01'
p827
I2
sS'talk.v.02'
p828
I2
sS'lend.v.01'
p829
I1
sS'chap.n.01'
p830
I1
sS'parish.n.01'
p831
I1
sS'vending.n.01'
p832
I1
sS'atmospheric_phenomenon.n.01'
p833
I4
sS'command.n.01'
p834
I1
sS'layer.n.01'
p835
I1
sS'decision.n.01'
p836
I2
sS'bully.n.01'
p837
I1
sS'shoulder.n.01'
p838
I1
sS'tell.v.02'
p839
I2
sS'shade.n.01'
p840
I1
sS'software.n.01'
p841
I2
sS'gauntlet.n.01'
p842
I1
sS'speculate.v.02'
p843
I1
sS'datum.n.01'
p844
I2
sS'worse.n.01'
p845
I1
sS'space.n.02'
p846
I2
sS'strike.v.01'
p847
I2
sS'process.n.05'
p848
I2
sS'outbuilding.n.01'
p849
I2
sS'publicize.v.01'
p850
I1
sS'groom.n.01'
p851
I1
sS'feather.n.01'
p852
I2
sS'south.n.03'
p853
I1
sS'blow.v.01'
p854
I2
sS'coat.n.01'
p855
I3
sS'sea.n.01'
p856
I1
sS'criticism.n.01'
p857
I3
sS'object.n.01'
p858
I7
sS'activity.n.01'
p859
I14
sS'screen.v.03'
p860
I1
sS'device.n.01'
p861
I6
sS'bench.n.01'
p862
I1
sS'perceive.v.01'
p863
I2
sS'consequence.n.01'
p864
I1
sS'award.n.02'
p865
I2
sS'highway.n.01'
p866
I2
sS'insect.n.01'
p867
I2
sS'winter.n.01'
p868
I1
sS'component.n.01'
p869
I1
sS'woman.n.01'
p870
I4
sS'eden.n.01'
p871
I1
sS'natural_object.n.01'
p872
I1
sS'hour.n.02'
p873
I2
sS'follower.n.01'
p874
I2
sS'fluid.n.01'
p875
I2
sS'maid.n.02'
p876
I1
sS'swivel.n.01'
p877
I1
sS'brown.n.01'
p878
I1
sS'unit.n.03'
p879
I8
sS'result.n.03'
p880
I2
sS'garbage.n.01'
p881
I1
sS'time_unit.n.01'
p882
I2
sS'aristocrat.n.01'
p883
I4
sS'muscle.n.01'
p884
I1
sS'pair.n.03'
p885
I2
sS'building.n.01'
p886
I8
sS'stool.v.04'
p887
I1
sS'five.n.01'
p888
I1
sS'propulsion.n.02'
p889
I2
sS'deception.n.02'
p890
I2
sS'dwelling.n.01'
p891
I2
sS'difficulty.n.03'
p892
I2
sS'separate.v.02'
p893
I2
sS'disorder.v.02'
p894
I2
sS'one.n.01'
p895
I1
sS'signal.n.01'
p896
I2
sS'lawn_mower.n.01'
p897
I1
sS'holy_order.n.01'
p898
I2
sS'gathering.n.01'
p899
I4
sS'causal_agent.n.01'
p900
I4
sS'floor.n.02'
p901
I1
sS'lightning.n.01'
p902
I2
sS'wear.v.02'
p903
I1
sS'note.v.01'
p904
I2
sS'long_time.n.01'
p905
I1
sS'twenty.n.01'
p906
I1
sS'hate.v.01'
p907
I2
sS'furniture.n.01'
p908
I2
sS'governess.n.01'
p909
I1
sS'recess.n.04'
p910
I2
sS'table.n.01'
p911
I2
sS'trouble.n.03'
p912
I2
sS'cheese.n.01'
p913
I2
sS'ruminant.n.01'
p914
I2
sS'maneuver.n.03'
p915
I2
sS'talk.v.01'
p916
I1
sS'limb.n.01'
p917
I2
sS'beget.v.01'
p918
I1
sS'dispute.n.01'
p919
I2
sS'horsemanship.n.01'
p920
I1
sS'maneuver.n.04'
p921
I2
sS'lamp.n.01'
p922
I2
sS'illness.n.01'
p923
I2
sS'discharge.n.01'
p924
I2
sS'get.v.01'
p925
I2
sS'even-toed_ungulate.n.01'
p926
I2
sS'rotation.n.01'
p927
I1
sS'better.v.02'
p928
I2
sS'change_shape.v.01'
p929
I2
sS'state.n.02'
p930
I4
sS'writing.n.02'
p931
I2
sS'animal_tissue.n.01'
p932
I1
sS'character.n.08'
p933
I2
sS'jerkin.n.01'
p934
I1
sS'outgo.n.01'
p935
I2
sS'field.n.01'
p936
I1
sS'candle.n.01'
p937
I1
sS'stay.v.01'
p938
I1
sS'move.v.02'
p939
I1
sS'move.v.03'
p940
I1
sS'eye.n.01'
p941
I1
sS'couple.n.01'
p942
I1
sS'prince.n.01'
p943
I2
sS'emblem.n.01'
p944
I2
sS'solid.n.01'
p945
I3
sS'inform.v.01'
p946
I2
sS'group_action.n.01'
p947
I6
sS'archery.n.01'
p948
I1
sS'hack.v.02'
p949
I1
sS'hole.n.01'
p950
I1
sS'park.n.02'
p951
I1
sS'thatch.v.01'
p952
I1
sS'unrighteousness.n.01'
p953
I2
sS'fence.v.01'
p954
I1
sS'act.v.01'
p955
I6
sS'placental.n.01'
p956
I6
sS'eat.v.02'
p957
I2
sS'area.n.05'
p958
I1
sS'drug.n.01'
p959
I6
sS'fabric.n.01'
p960
I2
sS'selling.n.01'
p961
I2
sS'conclusion.n.08'
p962
I1
sS'invertebrate.n.01'
p963
I2
sS'ride.v.01'
p964
I2
sS'pursue.v.02'
p965
I1
sS'being.n.01'
p966
I3
sS'he.n.02'
p967
I1
sS'mansion.n.02'
p968
I2
sS'tongue.n.01'
p969
I2
sS'spasm.n.01'
p970
I2
sS'curiosity.n.01'
p971
I2
sS'natural_phenomenon.n.01'
p972
I2
sS'symptom.n.01'
p973
I2
sS'fork.n.01'
p974
I1
sS'nail.v.01'
p975
I1
sS'attacker.n.01'
p976
I2
sS'basics.n.01'
p977
I1
sS'connective_tissue.n.01'
p978
I3
sS'thing.n.01'
p979
I1
sS'blink.n.01'
p980
I1
sS'bovid.n.01'
p981
I2
sS'rock.n.01'
p982
I1
sS'draw.v.07'
p983
I2
sS'stable.n.01'
p984
I1
sS'touch.v.01'
p985
I4
sS'marigold.n.01'
p986
I1
sS'barley.n.01'
p987
I1
sS'touch.v.05'
p988
I2
sS'bodily_process.n.01'
p989
I2
sS'boundary.n.01'
p990
I2
sS'arm.n.01'
p991
I1
sS'sport.n.01'
p992
I4
sS'farm_building.n.01'
p993
I2
sS'goal.n.01'
p994
I2
sS'question.n.02'
p995
I1
sS'one-half.n.01'
p996
I1
sS'assassin.n.01'
p997
I1
sS'apartment.n.01'
p998
I1
sS'naris.n.01'
p999
I2
sS'body_part.n.01'
p1000
I2
sS'publicist.n.01'
p1001
I2
sS'semidarkness.n.01'
p1002
I2
sS'work.v.02'
p1003
I2
sS'pathological_state.n.01'
p1004
I2
sS'decay.n.04'
p1005
I2
sS'pitchfork.v.01'
p1006
I1
sS'advance.v.01'
p1007
I2
sS'chemical.n.01'
p1008
I1
sS'engineering.n.02'
p1009
I1
sS'antonym.n.01'
p1010
I1
sS'time_interval.n.01'
p1011
I2
sS'reaction.n.03'
p1012
I2
sS'compound.n.02'
p1013
I3
sS'athletic_game.n.01'
p1014
I2
sS'change_hands.v.01'
p1015
I2
sS'shedding.n.01'
p1016
I2
sS'hunt.v.01'
p1017
I2
sS'soft_drug.n.01'
p1018
I2
sS'meet.v.10'
p1019
I2
sS'estate.n.01'
p1020
I1
sS'letters.n.01'
p1021
I1
sS'clay.n.01'
p1022
I2
sS'inferior.n.01'
p1023
I1
sS'mews.n.01'
p1024
I1
sS'attribute.n.02'
p1025
I12
sS'discrimination.n.02'
p1026
I2
sS'wrong.n.01'
p1027
I1
sS'language.n.01'
p1028
I2
sS'worst.n.01'
p1029
I1
sS'intemperance.n.02'
p1030
I1
sS'ending.n.04'
p1031
I2
sS'disputant.n.01'
p1032
I2
sS'proceed.v.04'
p1033
I1
sS'propose.v.01'
p1034
I1
sS'seven.n.01'
p1035
I1
sS'believer.n.02'
p1036
I1
sS'stroke.n.12'
p1037
I2
sS'hold.v.03'
p1038
I1
sS'tack.n.01'
p1039
I1
sS'cover.v.01'
p1040
I2
sS'change.v.01'
p1041
I4
sS'reproach.n.01'
p1042
I2
sS'change.v.02'
p1043
I2
sS'reason.n.01'
p1044
I1
sS'barrack.n.01'
p1045
I1
sS'indo-european.n.02'
p1046
I2
sS'storm.v.05'
p1047
I1
sS'chessman.n.01'
p1048
I2
sS'percussion_instrument.n.01'
p1049
I2
sS'connection.n.03'
p1050
I2
sS'evil_spirit.n.01'
p1051
I2
sS'wear.n.01'
p1052
I1
sS'while.n.01'
p1053
I1
sS'cooperation.n.01'
p1054
I2
sS'interest.n.01'
p1055
I2
sS'modern.n.01'
p1056
I1
sS'appoint.v.02'
p1057
I2
sS'peer.n.01'
p1058
I2
sS'wit.n.01'
p1059
I2
sS'grouch.v.01'
p1060
I1
sS'seat.n.04'
p1061
I2
sS'article.n.02'
p1062
I2
sS'opening.n.01'
p1063
I2
sS'diversion.n.01'
p1064
I4
sS'fine.n.01'
p1065
I1
sS'remove.v.01'
p1066
I3
sS'worsen.v.02'
p1067
I2
sS'money.n.01'
p1068
I2
sS'odds_and_ends.n.01'
p1069
I1
sS'vascular_plant.n.01'
p1070
I6
sS'attachment.n.04'
p1071
I2
sS'search.n.04'
p1072
I2
sS'experience.n.03'
p1073
I1
sS'ask.v.02'
p1074
I2
sS'put.v.01'
p1075
I3
sS'vehicle.n.01'
p1076
I2
sS'reproductive_structure.n.01'
p1077
I2
sS'workplace.n.01'
p1078
I2
sS'west.n.02'
p1079
I1
sS'expense.n.01'
p1080
I2
sS'roof.v.01'
p1081
I2
sS'understand.v.01'
p1082
I1
sS'pot.n.01'
p1083
I2
sS'spar.n.01'
p1084
I1
sS'descend.v.01'
p1085
I2
sS'sky.n.01'
p1086
I1
sS'nonsense.n.01'
p1087
I1
sS'seat.n.03'
p1088
I2
sS'wart.n.01'
p1089
I1
sS'goshawk.n.01'
p1090
I1
sS'beverage.n.01'
p1091
I2
sS'higher_cognitive_process.n.01'
p1092
I6
sS'offer.v.01'
p1093
I1
sS'floor.n.01'
p1094
I1
sS'july.n.01'
p1095
I1
sS'dare.n.01'
p1096
I1
sS'twist.v.10'
p1097
I1
sS'information_technology.n.01'
p1098
I1
sS'name.v.03'
p1099
I1
sS'three.n.01'
p1100
I1
sS'failing.n.01'
p1101
I1
sS'child.n.02'
p1102
I2
sS'ask.v.01'
p1103
I1
sS'warn.v.01'
p1104
I1
sS'beginning.n.02'
p1105
I1
sS'transmit.v.04'
p1106
I1
sS'announce.v.01'
p1107
I2
sS'object.v.01'
p1108
I2
sS'negative.n.01'
p1109
I2
sS'no.n.01'
p1110
I1
sS'conductor.n.02'
p1111
I2
sS'giant.n.01'
p1112
I1
sS'cold.n.01'
p1113
I2
sS'survival.n.03'
p1114
I2
sS'calendar_month.n.01'
p1115
I3
sS'trait.n.01'
p1116
I2
sS'demur.v.01'
p1117
I1
sS'history.n.01'
p1118
I1
sS'grow.v.08'
p1119
I1
sS'daub.n.01'
p1120
I1
sS'fact.n.02'
p1121
I2
sS'process.n.02'
p1122
I4
sS'book.n.01'
p1123
I1
sS'room.n.01'
p1124
I2
sS'room.n.02'
p1125
I1
sS'label.v.01'
p1126
I1
sS'unfortunate.n.01'
p1127
I2
sS'decrease.v.01'
p1128
I2
sS'reporter.n.01'
p1129
I1
sS'nautical_linear_unit.n.01'
p1130
I1
sS'body_covering.n.01'
p1131
I2
sS'sparrow_hawk.n.01'
p1132
I1
sS'slat.n.01'
p1133
I1
sS'mechanism.n.05'
p1134
I2
sS'call_on_the_carpet.v.01'
p1135
I1
sS'pass.v.05'
p1136
I1
sS'infection.n.01'
p1137
I2
sS'mechanical_device.n.01'
p1138
I4
sS'array.n.01'
p1139
I2
sS'chromatic_color.n.01'
p1140
I2
sS'clock_time.n.01'
p1141
I2
sS'body.n.02'
p1142
I4
sS'body.n.01'
p1143
I1
sS'worthlessness.n.01'
p1144
I2
sS'parturition.n.01'
p1145
I2
sS'liquid.n.03'
p1146
I2
sS'list.n.01'
p1147
I3
sS'design.n.04'
p1148
I2
sS'pyrimidine.n.01'
p1149
I2
sS'manservant.n.01'
p1150
I1
sS'wheeled_vehicle.n.01'
p1151
I3
sS'skin.n.01'
p1152
I2
sS'word.n.01'
p1153
I2
sS'walk.v.01'
p1154
I3
sS'experience.v.01'
p1155
I2
sS'experience.v.03'
p1156
I1
sS'spiritual_being.n.01'
p1157
I2
sS'read.v.08'
p1158
I1
sS'kick.n.01'
p1159
I1
sS'tree.n.01'
p1160
I1
sS'fireplace.n.01'
p1161
I1
sS'equine.n.01'
p1162
I1
sS'lover.n.03'
p1163
I3
sS'clearing.n.01'
p1164
I1
sS'drug_of_abuse.n.01'
p1165
I4
sS'cutter.n.06'
p1166
I2
sS'container.n.01'
p1167
I4
sS'leaf.n.01'
p1168
I1
sS'course.n.08'
p1169
I1
sS'enclosure.n.01'
p1170
I2
sS'subside.v.01'
p1171
I1
sS'crack.n.09'
p1172
I1
sS'volition.n.01'
p1173
I1
sS'blood_sport.n.01'
p1174
I3
sS'business.n.05'
p1175
I2
sS'bridge.n.01'
p1176
I2
sS'abstraction.n.01'
p1177
I2
sS'know.n.01'
p1178
I1
sS'investigation.n.02'
p1179
I1
sS'abstraction.n.06'
p1180
I12
sS'noise.n.01'
p1181
I2
sS'perch.n.02'
p1182
I1
sS'political_unit.n.01'
p1183
I2
sS'barrier.n.01'
p1184
I2
sS'organization.n.01'
p1185
I6
sS'animal_skin.n.01'
p1186
I2
sS'nibble.v.03'
p1187
I1
sS'category.n.02'
p1188
I2
sS'hyperpigmentation.n.01'
p1189
I2
sS'hanker.v.01'
p1190
I1
sS'special.n.01'
p1191
I1
sS'possession.n.02'
p1192
I6
sS'sacking.n.01'
p1193
I1
sS'set.n.01'
p1194
I2
sS'precipitation.n.03'
p1195
I2
sS'pant.n.01'
p1196
I1
sS'plant_organ.n.01'
p1197
I2
sS'end.n.02'
p1198
I2
sS'murderer.n.01'
p1199
I2
sS'holmium.n.01'
p1200
I1
sS'disorderliness.n.01'
p1201
I2
sS'girl.n.01'
p1202
I1
sS'brass_knucks.n.01'
p1203
I1
sS'express.v.02'
p1204
I2
sS'world_organization.n.01'
p1205
I2
sS'saturday.n.01'
p1206
I1
sS'travel_rapidly.v.01'
p1207
I2
sS'labor.v.02'
p1208
I1
sS'life.n.01'
p1209
I1
sS'lay.v.02'
p1210
I1
sS'direction.n.02'
p1211
I4
sS'vertebrate_foot.n.01'
p1212
I4
sS'saddle.n.01'
p1213
I1
sS'articulator.n.02'
p1214
I3
sS'judgment.n.01'
p1215
I1
sS'hearts.n.01'
p1216
I1
sS'bird.n.01'
p1217
I2
sS'comment.v.01'
p1218
I2
sS'animal_material.n.01'
p1219
I4
sS'prestige.n.01'
p1220
I1
sS'resource.n.01'
p1221
I2
sS'priest.n.01'
p1222
I2
sS'handkerchief.n.01'
p1223
I1
sS'method.n.01'
p1224
I2
sS'turf.n.01'
p1225
I1
sS'scurry.v.01'
p1226
I1
sS'transaction.n.01'
p1227
I4
sS'ingredient.n.03'
p1228
I2
sS'name.v.01'
p1229
I1
sS'respiratory_disease.n.01'
p1230
I3
sS'wattle.n.01'
p1231
I1
sS'subject.n.01'
p1232
I2
sS'monday.n.01'
p1233
I1
sS'outdoor_sport.n.01'
p1234
I2
sS'amorphous_shape.n.01'
p1235
I2
sS'serf.n.01'
p1236
I1
sS'house.n.01'
p1237
I2
sS'bad_person.n.01'
p1238
I4
sS'knock.v.06'
p1239
I2
sS'weaken.v.02'
p1240
I2
sS'state.v.01'
p1241
I4
sS'fundamental_quantity.n.01'
p1242
I2
sS'imperfection.n.01'
p1243
I2
sS'employee.n.01'
p1244
I2
sS'sense_organ.n.01'
p1245
I1
sS'proposal.n.01'
p1246
I2
sS'angiosperm.n.01'
p1247
I2
sS'windows.n.01'
p1248
I1
sS'group.n.01'
p1249
I8
sS'cope.v.01'
p1250
I2
sS'bestir.v.01'
p1251
I1
sS'attempt.n.01'
p1252
I2
sS'maestro.n.01'
p1253
I1
sS'pique.n.02'
p1254
I1
sS'valet.n.01'
p1255
I2
sS'alcohol.n.01'
p1256
I2
sS'shout.v.02'
p1257
I1
sS'thoroughfare.n.01'
p1258
I2
sS'complain.v.01'
p1259
I2
sS'mouth.n.01'
p1260
I1
sS'message.n.02'
p1261
I20
sS'spermatophyte.n.01'
p1262
I2
sS'commerce.n.01'
p1263
I2
sS'speech_act.n.01'
p1264
I5
sS'child.n.01'
p1265
I1
sS'assortment.n.01'
p1266
I2
sS'look.v.01'
p1267
I2
sS'look.v.02'
p1268
I1
sS'bread.n.01'
p1269
I2
sS'passage.n.07'
p1270
I2
sS'content.n.05'
p1271
I8
sS'order.n.03'
p1272
I2
sS'crowding.n.01'
p1273
I1
sS'thigh.n.01'
p1274
I1
sS'body_servant.n.01'
p1275
I1
sS'time_period.n.01'
p1276
I2
sS'written_communication.n.01'
p1277
I4
sS'voice.n.01'
p1278
I1
sS'nautical_mile.n.02'
p1279
I1
sS'bird_of_prey.n.01'
p1280
I3
sS'hide.v.01'
p1281
I2
sS'advertiser.n.01'
p1282
I1
sS'medical_building.n.01'
p1283
I2
sS'sit.v.01'
p1284
I1
sS'courtesy.n.03'
p1285
I2
sS'edge_tool.n.01'
p1286
I2
sS'pass.n.09'
p1287
I1
sS'road.n.01'
p1288
I4
sS'apparel.n.01'
p1289
I1
sS'associate.v.01'
p1290
I2
sS'lap.v.03'
p1291
I1
sS'hundred.n.01'
p1292
I1
sS'transferred_property.n.01'
p1293
I2
sS'repeat.v.04'
p1294
I2
sS'artist.n.01'
p1295
I1
sS'wire.n.01'
p1296
I1
sS'appellation.n.01'
p1297
I2
sS'plant_material.n.01'
p1298
I2
sS'understand.v.03'
p1299
I1
sS'college.n.01'
p1300
I1
sS'utter.v.02'
p1301
I2
sS'baked_goods.n.01'
p1302
I2
sS'instrument.n.01'
p1303
I5
sS'capture.v.06'
p1304
I2
sS'light.n.01'
p1305
I1
sS'mistake.n.01'
p1306
I1
sS'skill.n.01'
p1307
I2
sS'name.n.01'
p1308
I2
sS'form.v.07'
p1309
I1
sS'right.n.01'
p1310
I1
sS'database.n.01'
p1311
I1
sS'simpleton.n.01'
p1312
I2
sS'boodle.n.01'
p1313
I1
sS'person.n.01'
p1314
I22
sS'know-how.n.01'
p1315
I2
sS'grow.v.07'
p1316
I1
sS'conveyance.n.03'
p1317
I2
sS'manage.v.02'
p1318
I2
sS'military_action.n.01'
p1319
I1
sS'jacket.n.01'
p1320
I2
sS'military_unit.n.01'
p1321
I2
sS'hydrogen.n.01'
p1322
I2
sS'elite.n.01'
p1323
I2
sS'cartwheel.n.01'
p1324
I1
sS'excavation.n.03'
p1325
I2
sS'exhaust.v.05'
p1326
I2
sS'wrongdoer.n.01'
p1327
I4
sS'habit.n.02'
p1328
I1
sS'relative.n.01'
p1329
I2
sS'startle.v.02'
p1330
I1
sS'animal.n.01'
p1331
I2
sS'cleanse.v.01'
p1332
I2
sS'signaling_device.n.01'
p1333
I2
sS'measure.v.04'
p1334
I2
sS'relative_quantity.n.01'
p1335
I2
sS'ginger.n.01'
p1336
I1
sS'alliance.n.03'
p1337
I2
sS'motivation.n.01'
p1338
I2
sS'stopping_point.n.01'
p1339
I1
sS'excel.v.01'
p1340
I1
sS'spur.n.04'
p1341
I1
sS'liquid.n.01'
p1342
I2
sS'forward_pass.n.01'
p1343
I1
sS'discipline.n.01'
p1344
I2
sS'wednesday.n.01'
p1345
I1
sS'shame.n.01'
p1346
I1
sS'shadow.v.02'
p1347
I1
s.